
Transmitter.elf:     file format elf32-avr

Sections:
Idx Name          Size      VMA       LMA       File off  Algn
  0 .data         00000020  00800200  00000432  000004c6  2**0
                  CONTENTS, ALLOC, LOAD, DATA
  1 .text         00000432  00000000  00000000  00000094  2**1
                  CONTENTS, ALLOC, LOAD, READONLY, CODE
  2 .bss          00000003  00800220  00800220  000004e6  2**0
                  ALLOC
  3 .comment      00000030  00000000  00000000  000004e6  2**0
                  CONTENTS, READONLY
  4 .note.gnu.avr.deviceinfo 00000040  00000000  00000000  00000518  2**2
                  CONTENTS, READONLY
  5 .debug_aranges 000000c8  00000000  00000000  00000558  2**0
                  CONTENTS, READONLY, DEBUGGING
  6 .debug_info   00001563  00000000  00000000  00000620  2**0
                  CONTENTS, READONLY, DEBUGGING
  7 .debug_abbrev 00000fd3  00000000  00000000  00001b83  2**0
                  CONTENTS, READONLY, DEBUGGING
  8 .debug_line   00000674  00000000  00000000  00002b56  2**0
                  CONTENTS, READONLY, DEBUGGING
  9 .debug_frame  000001b8  00000000  00000000  000031cc  2**2
                  CONTENTS, READONLY, DEBUGGING
 10 .debug_str    000008a9  00000000  00000000  00003384  2**0
                  CONTENTS, READONLY, DEBUGGING
 11 .debug_loc    00000324  00000000  00000000  00003c2d  2**0
                  CONTENTS, READONLY, DEBUGGING
 12 .debug_ranges 000000b0  00000000  00000000  00003f51  2**0
                  CONTENTS, READONLY, DEBUGGING

Disassembly of section .text:

00000000 <__vectors>:
   0:	72 c0       	rjmp	.+228    	; 0xe6 <__ctors_end>
   2:	00 00       	nop
   4:	9f c0       	rjmp	.+318    	; 0x144 <__vector_1>
   6:	00 00       	nop
   8:	9c c0       	rjmp	.+312    	; 0x142 <__bad_interrupt>
   a:	00 00       	nop
   c:	9a c0       	rjmp	.+308    	; 0x142 <__bad_interrupt>
   e:	00 00       	nop
  10:	98 c0       	rjmp	.+304    	; 0x142 <__bad_interrupt>
  12:	00 00       	nop
  14:	96 c0       	rjmp	.+300    	; 0x142 <__bad_interrupt>
  16:	00 00       	nop
  18:	94 c0       	rjmp	.+296    	; 0x142 <__bad_interrupt>
  1a:	00 00       	nop
  1c:	92 c0       	rjmp	.+292    	; 0x142 <__bad_interrupt>
  1e:	00 00       	nop
  20:	90 c0       	rjmp	.+288    	; 0x142 <__bad_interrupt>
  22:	00 00       	nop
  24:	8e c0       	rjmp	.+284    	; 0x142 <__bad_interrupt>
  26:	00 00       	nop
  28:	8c c0       	rjmp	.+280    	; 0x142 <__bad_interrupt>
  2a:	00 00       	nop
  2c:	8a c0       	rjmp	.+276    	; 0x142 <__bad_interrupt>
  2e:	00 00       	nop
  30:	88 c0       	rjmp	.+272    	; 0x142 <__bad_interrupt>
  32:	00 00       	nop
  34:	86 c0       	rjmp	.+268    	; 0x142 <__bad_interrupt>
  36:	00 00       	nop
  38:	84 c0       	rjmp	.+264    	; 0x142 <__bad_interrupt>
  3a:	00 00       	nop
  3c:	82 c0       	rjmp	.+260    	; 0x142 <__bad_interrupt>
  3e:	00 00       	nop
  40:	80 c0       	rjmp	.+256    	; 0x142 <__bad_interrupt>
  42:	00 00       	nop
  44:	7e c0       	rjmp	.+252    	; 0x142 <__bad_interrupt>
  46:	00 00       	nop
  48:	7c c0       	rjmp	.+248    	; 0x142 <__bad_interrupt>
  4a:	00 00       	nop
  4c:	7a c0       	rjmp	.+244    	; 0x142 <__bad_interrupt>
  4e:	00 00       	nop
  50:	78 c0       	rjmp	.+240    	; 0x142 <__bad_interrupt>
  52:	00 00       	nop
  54:	76 c0       	rjmp	.+236    	; 0x142 <__bad_interrupt>
  56:	00 00       	nop
  58:	74 c0       	rjmp	.+232    	; 0x142 <__bad_interrupt>
  5a:	00 00       	nop
  5c:	72 c0       	rjmp	.+228    	; 0x142 <__bad_interrupt>
  5e:	00 00       	nop
  60:	70 c0       	rjmp	.+224    	; 0x142 <__bad_interrupt>
  62:	00 00       	nop
  64:	9d c0       	rjmp	.+314    	; 0x1a0 <__vector_25>
  66:	00 00       	nop
  68:	6c c0       	rjmp	.+216    	; 0x142 <__bad_interrupt>
  6a:	00 00       	nop
  6c:	6a c0       	rjmp	.+212    	; 0x142 <__bad_interrupt>
  6e:	00 00       	nop
  70:	68 c0       	rjmp	.+208    	; 0x142 <__bad_interrupt>
  72:	00 00       	nop
  74:	66 c0       	rjmp	.+204    	; 0x142 <__bad_interrupt>
  76:	00 00       	nop
  78:	64 c0       	rjmp	.+200    	; 0x142 <__bad_interrupt>
  7a:	00 00       	nop
  7c:	62 c0       	rjmp	.+196    	; 0x142 <__bad_interrupt>
  7e:	00 00       	nop
  80:	60 c0       	rjmp	.+192    	; 0x142 <__bad_interrupt>
  82:	00 00       	nop
  84:	5e c0       	rjmp	.+188    	; 0x142 <__bad_interrupt>
  86:	00 00       	nop
  88:	5c c0       	rjmp	.+184    	; 0x142 <__bad_interrupt>
  8a:	00 00       	nop
  8c:	5a c0       	rjmp	.+180    	; 0x142 <__bad_interrupt>
  8e:	00 00       	nop
  90:	58 c0       	rjmp	.+176    	; 0x142 <__bad_interrupt>
  92:	00 00       	nop
  94:	56 c0       	rjmp	.+172    	; 0x142 <__bad_interrupt>
  96:	00 00       	nop
  98:	54 c0       	rjmp	.+168    	; 0x142 <__bad_interrupt>
  9a:	00 00       	nop
  9c:	52 c0       	rjmp	.+164    	; 0x142 <__bad_interrupt>
  9e:	00 00       	nop
  a0:	50 c0       	rjmp	.+160    	; 0x142 <__bad_interrupt>
  a2:	00 00       	nop
  a4:	4e c0       	rjmp	.+156    	; 0x142 <__bad_interrupt>
  a6:	00 00       	nop
  a8:	4c c0       	rjmp	.+152    	; 0x142 <__bad_interrupt>
  aa:	00 00       	nop
  ac:	4a c0       	rjmp	.+148    	; 0x142 <__bad_interrupt>
  ae:	00 00       	nop
  b0:	48 c0       	rjmp	.+144    	; 0x142 <__bad_interrupt>
  b2:	00 00       	nop
  b4:	46 c0       	rjmp	.+140    	; 0x142 <__bad_interrupt>
  b6:	00 00       	nop
  b8:	44 c0       	rjmp	.+136    	; 0x142 <__bad_interrupt>
  ba:	00 00       	nop
  bc:	42 c0       	rjmp	.+132    	; 0x142 <__bad_interrupt>
  be:	00 00       	nop
  c0:	40 c0       	rjmp	.+128    	; 0x142 <__bad_interrupt>
  c2:	00 00       	nop
  c4:	3e c0       	rjmp	.+124    	; 0x142 <__bad_interrupt>
  c6:	00 00       	nop
  c8:	3c c0       	rjmp	.+120    	; 0x142 <__bad_interrupt>
  ca:	00 00       	nop
  cc:	3a c0       	rjmp	.+116    	; 0x142 <__bad_interrupt>
  ce:	00 00       	nop
  d0:	38 c0       	rjmp	.+112    	; 0x142 <__bad_interrupt>
  d2:	00 00       	nop
  d4:	36 c0       	rjmp	.+108    	; 0x142 <__bad_interrupt>
  d6:	00 00       	nop
  d8:	34 c0       	rjmp	.+104    	; 0x142 <__bad_interrupt>
  da:	00 00       	nop
  dc:	32 c0       	rjmp	.+100    	; 0x142 <__bad_interrupt>
  de:	00 00       	nop
  e0:	30 c0       	rjmp	.+96     	; 0x142 <__bad_interrupt>
	...

000000e4 <__ctors_start>:
  e4:	af 01       	movw	r20, r30

000000e6 <__ctors_end>:
  e6:	11 24       	eor	r1, r1
  e8:	1f be       	out	0x3f, r1	; 63
  ea:	cf ef       	ldi	r28, 0xFF	; 255
  ec:	d1 e2       	ldi	r29, 0x21	; 33
  ee:	de bf       	out	0x3e, r29	; 62
  f0:	cd bf       	out	0x3d, r28	; 61
  f2:	00 e0       	ldi	r16, 0x00	; 0
  f4:	0c bf       	out	0x3c, r16	; 60

000000f6 <__do_copy_data>:
  f6:	12 e0       	ldi	r17, 0x02	; 2
  f8:	a0 e0       	ldi	r26, 0x00	; 0
  fa:	b2 e0       	ldi	r27, 0x02	; 2
  fc:	e2 e3       	ldi	r30, 0x32	; 50
  fe:	f4 e0       	ldi	r31, 0x04	; 4
 100:	00 e0       	ldi	r16, 0x00	; 0
 102:	0b bf       	out	0x3b, r16	; 59
 104:	02 c0       	rjmp	.+4      	; 0x10a <__do_copy_data+0x14>
 106:	07 90       	elpm	r0, Z+
 108:	0d 92       	st	X+, r0
 10a:	a0 32       	cpi	r26, 0x20	; 32
 10c:	b1 07       	cpc	r27, r17
 10e:	d9 f7       	brne	.-10     	; 0x106 <__do_copy_data+0x10>

00000110 <__do_clear_bss>:
 110:	22 e0       	ldi	r18, 0x02	; 2
 112:	a0 e2       	ldi	r26, 0x20	; 32
 114:	b2 e0       	ldi	r27, 0x02	; 2
 116:	01 c0       	rjmp	.+2      	; 0x11a <.do_clear_bss_start>

00000118 <.do_clear_bss_loop>:
 118:	1d 92       	st	X+, r1

0000011a <.do_clear_bss_start>:
 11a:	a3 32       	cpi	r26, 0x23	; 35
 11c:	b2 07       	cpc	r27, r18
 11e:	e1 f7       	brne	.-8      	; 0x118 <.do_clear_bss_loop>

00000120 <__do_global_ctors>:
 120:	10 e0       	ldi	r17, 0x00	; 0
 122:	c3 e7       	ldi	r28, 0x73	; 115
 124:	d0 e0       	ldi	r29, 0x00	; 0
 126:	00 e0       	ldi	r16, 0x00	; 0
 128:	05 c0       	rjmp	.+10     	; 0x134 <__do_global_ctors+0x14>
 12a:	21 97       	sbiw	r28, 0x01	; 1
 12c:	01 09       	sbc	r16, r1
 12e:	80 2f       	mov	r24, r16
 130:	fe 01       	movw	r30, r28
 132:	75 d1       	rcall	.+746    	; 0x41e <__tablejump2__>
 134:	c2 37       	cpi	r28, 0x72	; 114
 136:	d1 07       	cpc	r29, r17
 138:	80 e0       	ldi	r24, 0x00	; 0
 13a:	08 07       	cpc	r16, r24
 13c:	b1 f7       	brne	.-20     	; 0x12a <__do_global_ctors+0xa>
 13e:	50 d0       	rcall	.+160    	; 0x1e0 <main>
 140:	76 c1       	rjmp	.+748    	; 0x42e <_exit>

00000142 <__bad_interrupt>:
 142:	5e cf       	rjmp	.-324    	; 0x0 <__vectors>

00000144 <__vector_1>:
		
    }
}

ISR(INT0_vect)
{
 144:	1f 92       	push	r1
 146:	0f 92       	push	r0
 148:	0f b6       	in	r0, 0x3f	; 63
 14a:	0f 92       	push	r0
 14c:	11 24       	eor	r1, r1
 14e:	0b b6       	in	r0, 0x3b	; 59
 150:	0f 92       	push	r0
 152:	2f 93       	push	r18
 154:	3f 93       	push	r19
 156:	4f 93       	push	r20
 158:	5f 93       	push	r21
 15a:	6f 93       	push	r22
 15c:	7f 93       	push	r23
 15e:	8f 93       	push	r24
 160:	9f 93       	push	r25
 162:	af 93       	push	r26
 164:	bf 93       	push	r27
 166:	ef 93       	push	r30
 168:	ff 93       	push	r31
	sender.setZeroCross(1);
 16a:	61 e0       	ldi	r22, 0x01	; 1
 16c:	70 e0       	ldi	r23, 0x00	; 0
 16e:	80 e2       	ldi	r24, 0x20	; 32
 170:	92 e0       	ldi	r25, 0x02	; 2
 172:	01 d1       	rcall	.+514    	; 0x376 <_ZN11Transmitter12setZeroCrossEi>
	PORTB = PINB ^ 0b10000000;
 174:	83 b1       	in	r24, 0x03	; 3
 176:	80 58       	subi	r24, 0x80	; 128
 178:	85 b9       	out	0x05, r24	; 5
}
 17a:	ff 91       	pop	r31
 17c:	ef 91       	pop	r30
 17e:	bf 91       	pop	r27
 180:	af 91       	pop	r26
 182:	9f 91       	pop	r25
 184:	8f 91       	pop	r24
 186:	7f 91       	pop	r23
 188:	6f 91       	pop	r22
 18a:	5f 91       	pop	r21
 18c:	4f 91       	pop	r20
 18e:	3f 91       	pop	r19
 190:	2f 91       	pop	r18
 192:	0f 90       	pop	r0
 194:	0b be       	out	0x3b, r0	; 59
 196:	0f 90       	pop	r0
 198:	0f be       	out	0x3f, r0	; 63
 19a:	0f 90       	pop	r0
 19c:	1f 90       	pop	r1
 19e:	18 95       	reti

000001a0 <__vector_25>:

ISR(USART0_RX_vect)
{
 1a0:	1f 92       	push	r1
 1a2:	0f 92       	push	r0
 1a4:	0f b6       	in	r0, 0x3f	; 63
 1a6:	0f 92       	push	r0
 1a8:	11 24       	eor	r1, r1
 1aa:	8f 93       	push	r24
	modtaget = UDR0;
 1ac:	80 91 c6 00 	lds	r24, 0x00C6	; 0x8000c6 <__TEXT_REGION_LENGTH__+0x7c00c6>
 1b0:	80 93 22 02 	sts	0x0222, r24	; 0x800222 <modtaget>
}
 1b4:	8f 91       	pop	r24
 1b6:	0f 90       	pop	r0
 1b8:	0f be       	out	0x3f, r0	; 63
 1ba:	0f 90       	pop	r0
 1bc:	1f 90       	pop	r1
 1be:	18 95       	reti

000001c0 <_Z13initInterupt0v>:

void initInterupt0()
{
	sei();
 1c0:	78 94       	sei
	EIMSK |= 0b00000001;
 1c2:	e8 9a       	sbi	0x1d, 0	; 29
	EICRA |= 0b00000001;
 1c4:	e9 e6       	ldi	r30, 0x69	; 105
 1c6:	f0 e0       	ldi	r31, 0x00	; 0
 1c8:	80 81       	ld	r24, Z
 1ca:	81 60       	ori	r24, 0x01	; 1
 1cc:	80 83       	st	Z, r24
 1ce:	08 95       	ret

000001d0 <_Z10initIOpinsv>:
}

void initIOpins()
{
		DDRB = 0xFF;
 1d0:	8f ef       	ldi	r24, 0xFF	; 255
 1d2:	84 b9       	out	0x04, r24	; 4
		DDRC = 0xFF;
 1d4:	87 b9       	out	0x07, r24	; 7
		DDRD = 0;
 1d6:	1a b8       	out	0x0a, r1	; 10
		PORTB = 0;
 1d8:	15 b8       	out	0x05, r1	; 5
		PORTC = 0;
 1da:	18 b8       	out	0x08, r1	; 8
		PORTD = 0;
 1dc:	1b b8       	out	0x0b, r1	; 11
 1de:	08 95       	ret

000001e0 <main>:
//volatile int zeroCross = 0;
volatile char modtaget;
Transmitter sender;

int main(void)
{
 1e0:	cf 93       	push	r28
 1e2:	df 93       	push	r29
 1e4:	cd b7       	in	r28, 0x3d	; 61
 1e6:	de b7       	in	r29, 0x3e	; 62
 1e8:	69 97       	sbiw	r28, 0x19	; 25
 1ea:	0f b6       	in	r0, 0x3f	; 63
 1ec:	f8 94       	cli
 1ee:	de bf       	out	0x3e, r29	; 62
 1f0:	0f be       	out	0x3f, r0	; 63
 1f2:	cd bf       	out	0x3d, r28	; 61
	initIOpins();
 1f4:	ed df       	rcall	.-38     	; 0x1d0 <_Z10initIOpinsv>
	initInterupt0();
 1f6:	e4 df       	rcall	.-56     	; 0x1c0 <_Z13initInterupt0v>
 1f8:	ce 01       	movw	r24, r28
	UART uart0;
 1fa:	01 96       	adiw	r24, 0x01	; 1
 1fc:	e7 d0       	rcall	.+462    	; 0x3cc <_ZN4UARTC1Ev>
 1fe:	6e 01       	movw	r12, r28
 200:	8e e0       	ldi	r24, 0x0E	; 14
 202:	c8 0e       	add	r12, r24
 204:	d1 1c       	adc	r13, r1
 206:	99 24       	eor	r9, r9
					TCCR0B |= 0b00000010;
					while ((TIFR0 & (1<<0)) == 0)
					{}
					PORTC = 0;
					TCCR0B |= 0b00000000;
					TIFR0 = 0b00000001;
 208:	93 94       	inc	r9
 20a:	7e 01       	movw	r14, r28
 20c:	ea e1       	ldi	r30, 0x1A	; 26
 20e:	ee 0e       	add	r14, r30
 210:	f1 1c       	adc	r15, r1
 212:	77 24       	eor	r7, r7
					PORTC = 0;
					TCCR0B |= 0b00000000;
					TIFR0 = 0b00000001;
					sender.setZeroCross(0);
				}							
				PORTB = 0b11111111;
 214:	7a 94       	dec	r7
 216:	aa 24       	eor	r10, r10
				switch (modtaget)
				{
				case 'a':
					uart0.SendString("Lampen er tændt");
					adresse[0] = 0;
					adresse[1] = 1;
 218:	a3 94       	inc	r10
 21a:	b1 2c       	mov	r11, r1
 21c:	0f 2e       	mov	r0, r31
					sender.setZeroCross(0);
				}							
				PORTB = 0b11111111;

			}
		modtaget = '0';
 21e:	f0 e3       	ldi	r31, 0x30	; 48
 220:	8f 2e       	mov	r8, r31
 222:	f0 2d       	mov	r31, r0
 224:	80 91 22 02 	lds	r24, 0x0222	; 0x800222 <modtaget>
    /* Replace with your application code */
    while (1) 
    {
			
			
			if ((modtaget == 'a') || (modtaget == 'b') || (modtaget == 'c') || (modtaget == 'd'))
 228:	81 36       	cpi	r24, 0x61	; 97
 22a:	69 f0       	breq	.+26     	; 0x246 <main+0x66>
 22c:	80 91 22 02 	lds	r24, 0x0222	; 0x800222 <modtaget>
 230:	82 36       	cpi	r24, 0x62	; 98
 232:	49 f0       	breq	.+18     	; 0x246 <main+0x66>
 234:	80 91 22 02 	lds	r24, 0x0222	; 0x800222 <modtaget>
 238:	83 36       	cpi	r24, 0x63	; 99
 23a:	29 f0       	breq	.+10     	; 0x246 <main+0x66>
 23c:	80 91 22 02 	lds	r24, 0x0222	; 0x800222 <modtaget>
 240:	84 36       	cpi	r24, 0x64	; 100
 242:	09 f0       	breq	.+2      	; 0x246 <main+0x66>
 244:	89 c0       	rjmp	.+274    	; 0x358 <main+0x178>
 246:	80 91 22 02 	lds	r24, 0x0222	; 0x800222 <modtaget>
			{
				switch (modtaget)
 24a:	81 36       	cpi	r24, 0x61	; 97
 24c:	e9 f4       	brne	.+58     	; 0x288 <main+0xa8>
 24e:	60 e1       	ldi	r22, 0x10	; 16
				{
				case 'a':
					uart0.SendString("Lampen er tændt");
 250:	72 e0       	ldi	r23, 0x02	; 2
 252:	ce 01       	movw	r24, r28
 254:	01 96       	adiw	r24, 0x01	; 1
 256:	cf d0       	rcall	.+414    	; 0x3f6 <_ZN4UART10SendStringEPc>
 258:	1b 82       	std	Y+3, r1	; 0x03
					adresse[0] = 0;
 25a:	1a 82       	std	Y+2, r1	; 0x02
 25c:	bd 82       	std	Y+5, r11	; 0x05
					adresse[1] = 1;
 25e:	ac 82       	std	Y+4, r10	; 0x04
 260:	1f 82       	std	Y+7, r1	; 0x07
					adresse[2] = 0;
 262:	1e 82       	std	Y+6, r1	; 0x06
 264:	b9 86       	std	Y+9, r11	; 0x09
					adresse[3] = 1;
 266:	a8 86       	std	Y+8, r10	; 0x08
 268:	1b 86       	std	Y+11, r1	; 0x0b
					adresse[4] = 0;
 26a:	1a 86       	std	Y+10, r1	; 0x0a
 26c:	bd 86       	std	Y+13, r11	; 0x0d
					adresse[5] = 1;
 26e:	ac 86       	std	Y+12, r10	; 0x0c
 270:	bf 86       	std	Y+15, r11	; 0x0f
					kommando[0] = 1;
 272:	ae 86       	std	Y+14, r10	; 0x0e
 274:	19 8a       	std	Y+17, r1	; 0x11
					kommando[1] = 0;
 276:	18 8a       	std	Y+16, r1	; 0x10
 278:	bb 8a       	std	Y+19, r11	; 0x13
					kommando[2] = 1;
 27a:	aa 8a       	std	Y+18, r10	; 0x12
 27c:	1d 8a       	std	Y+21, r1	; 0x15
					kommando[3] = 0;
 27e:	1c 8a       	std	Y+20, r1	; 0x14
 280:	bf 8a       	std	Y+23, r11	; 0x17
					kommando[4] = 1;
 282:	ae 8a       	std	Y+22, r10	; 0x16
 284:	19 8e       	std	Y+25, r1	; 0x19
					kommando[5] = 0;
 286:	18 8e       	std	Y+24, r1	; 0x18
					break;
				}
				
				sender.sendStartBits();
 288:	80 e2       	ldi	r24, 0x20	; 32
 28a:	92 e0       	ldi	r25, 0x02	; 2
 28c:	7b d0       	rcall	.+246    	; 0x384 <_ZN11Transmitter13sendStartBitsEv>
 28e:	8e 01       	movw	r16, r28
 290:	0e 5f       	subi	r16, 0xFE	; 254
 292:	1f 4f       	sbci	r17, 0xFF	; 255
				
				for (int i = 0; i < 6; i++)
				{
					while (sender.getZeroCross()==0)
 294:	80 e2       	ldi	r24, 0x20	; 32
 296:	92 e0       	ldi	r25, 0x02	; 2
 298:	6a d0       	rcall	.+212    	; 0x36e <_ZN11Transmitter12getZeroCrossEv>
 29a:	89 2b       	or	r24, r25
 29c:	d9 f3       	breq	.-10     	; 0x294 <main+0xb4>
 29e:	f8 01       	movw	r30, r16
					{}
					PORTC = adresse[i];
 2a0:	80 81       	ld	r24, Z
 2a2:	0e 5f       	subi	r16, 0xFE	; 254
 2a4:	1f 4f       	sbci	r17, 0xFF	; 255
 2a6:	88 b9       	out	0x08, r24	; 8
 2a8:	84 b5       	in	r24, 0x24	; 36
					TCCR0A |= 0b00000000;
 2aa:	84 bd       	out	0x24, r24	; 36
 2ac:	85 b5       	in	r24, 0x25	; 37
					TCCR0B |= 0b00000010;
 2ae:	82 60       	ori	r24, 0x02	; 2
 2b0:	85 bd       	out	0x25, r24	; 37
 2b2:	a8 9b       	sbis	0x15, 0	; 21
					while ((TIFR0 & (1<<0)) == 0)
 2b4:	fe cf       	rjmp	.-4      	; 0x2b2 <main+0xd2>
 2b6:	18 b8       	out	0x08, r1	; 8
					{}
					PORTC = 0;
 2b8:	85 b5       	in	r24, 0x25	; 37
					TCCR0B |= 0b00000000;
 2ba:	85 bd       	out	0x25, r24	; 37
					TIFR0 = 0b00000001;
 2bc:	95 ba       	out	0x15, r9	; 21
					sender.setZeroCross(0);
 2be:	60 e0       	ldi	r22, 0x00	; 0
 2c0:	70 e0       	ldi	r23, 0x00	; 0
 2c2:	80 e2       	ldi	r24, 0x20	; 32
 2c4:	92 e0       	ldi	r25, 0x02	; 2
 2c6:	57 d0       	rcall	.+174    	; 0x376 <_ZN11Transmitter12setZeroCrossEi>
 2c8:	c0 16       	cp	r12, r16
					break;
				}
				
				sender.sendStartBits();
				
				for (int i = 0; i < 6; i++)
 2ca:	d1 06       	cpc	r13, r17
 2cc:	19 f7       	brne	.-58     	; 0x294 <main+0xb4>
 2ce:	8e 01       	movw	r16, r28
 2d0:	02 5f       	subi	r16, 0xF2	; 242
 2d2:	1f 4f       	sbci	r17, 0xFF	; 255
					sender.setZeroCross(0);
				}

				for (int i = 0; i < 6; i++)
				{
					while (sender.getZeroCross()==0)
 2d4:	80 e2       	ldi	r24, 0x20	; 32
 2d6:	92 e0       	ldi	r25, 0x02	; 2
 2d8:	4a d0       	rcall	.+148    	; 0x36e <_ZN11Transmitter12getZeroCrossEv>
 2da:	89 2b       	or	r24, r25
 2dc:	d9 f3       	breq	.-10     	; 0x2d4 <main+0xf4>
 2de:	f8 01       	movw	r30, r16
					{}
					PORTC = kommando[i];
 2e0:	80 81       	ld	r24, Z
 2e2:	0e 5f       	subi	r16, 0xFE	; 254
 2e4:	1f 4f       	sbci	r17, 0xFF	; 255
 2e6:	88 b9       	out	0x08, r24	; 8
 2e8:	84 b5       	in	r24, 0x24	; 36
					TCCR0A |= 0b00000000;
 2ea:	84 bd       	out	0x24, r24	; 36
 2ec:	85 b5       	in	r24, 0x25	; 37
					TCCR0B |= 0b00000010;
 2ee:	82 60       	ori	r24, 0x02	; 2
 2f0:	85 bd       	out	0x25, r24	; 37
 2f2:	a8 9b       	sbis	0x15, 0	; 21
					while ((TIFR0 & (1<<0)) == 0)
 2f4:	fe cf       	rjmp	.-4      	; 0x2f2 <main+0x112>
 2f6:	18 b8       	out	0x08, r1	; 8
					{}
					PORTC = 0;
					TCCR0B |= 0b00000000;
 2f8:	85 b5       	in	r24, 0x25	; 37
 2fa:	85 bd       	out	0x25, r24	; 37
					TIFR0 = 0b00000001;
 2fc:	95 ba       	out	0x15, r9	; 21
					sender.setZeroCross(0);
 2fe:	60 e0       	ldi	r22, 0x00	; 0
 300:	70 e0       	ldi	r23, 0x00	; 0
 302:	80 e2       	ldi	r24, 0x20	; 32
 304:	92 e0       	ldi	r25, 0x02	; 2
 306:	37 d0       	rcall	.+110    	; 0x376 <_ZN11Transmitter12setZeroCrossEi>
					TCCR0B |= 0b00000000;
					TIFR0 = 0b00000001;
					sender.setZeroCross(0);
				}

				for (int i = 0; i < 6; i++)
 308:	0e 15       	cp	r16, r14
 30a:	1f 05       	cpc	r17, r15
 30c:	19 f7       	brne	.-58     	; 0x2d4 <main+0xf4>
 30e:	00 e0       	ldi	r16, 0x00	; 0
 310:	10 e0       	ldi	r17, 0x00	; 0
				}


				for (int i = 0; i < 4; i++)
				{
					while (sender.getZeroCross()==0)
 312:	80 e2       	ldi	r24, 0x20	; 32
 314:	92 e0       	ldi	r25, 0x02	; 2
 316:	2b d0       	rcall	.+86     	; 0x36e <_ZN11Transmitter12getZeroCrossEv>
 318:	89 2b       	or	r24, r25
 31a:	d9 f3       	breq	.-10     	; 0x312 <main+0x132>
 31c:	f8 01       	movw	r30, r16
					{}
					PORTC = stopbit[i];
 31e:	ee 0f       	add	r30, r30
 320:	ff 1f       	adc	r31, r31
 322:	e0 50       	subi	r30, 0x00	; 0
 324:	fe 4f       	sbci	r31, 0xFE	; 254
 326:	80 81       	ld	r24, Z
 328:	91 81       	ldd	r25, Z+1	; 0x01
 32a:	88 b9       	out	0x08, r24	; 8
 32c:	84 b5       	in	r24, 0x24	; 36
					TCCR0A |= 0b00000000;
 32e:	84 bd       	out	0x24, r24	; 36
 330:	85 b5       	in	r24, 0x25	; 37
					TCCR0B |= 0b00000010;
 332:	82 60       	ori	r24, 0x02	; 2
 334:	85 bd       	out	0x25, r24	; 37
 336:	a8 9b       	sbis	0x15, 0	; 21
					while ((TIFR0 & (1<<0)) == 0)
 338:	fe cf       	rjmp	.-4      	; 0x336 <main+0x156>
					{}
					PORTC = 0;
 33a:	18 b8       	out	0x08, r1	; 8
					TCCR0B |= 0b00000000;
 33c:	85 b5       	in	r24, 0x25	; 37
 33e:	85 bd       	out	0x25, r24	; 37
					TIFR0 = 0b00000001;
 340:	95 ba       	out	0x15, r9	; 21
					sender.setZeroCross(0);
 342:	60 e0       	ldi	r22, 0x00	; 0
 344:	70 e0       	ldi	r23, 0x00	; 0
 346:	80 e2       	ldi	r24, 0x20	; 32
 348:	92 e0       	ldi	r25, 0x02	; 2
 34a:	15 d0       	rcall	.+42     	; 0x376 <_ZN11Transmitter12setZeroCrossEi>
 34c:	0f 5f       	subi	r16, 0xFF	; 255
					TIFR0 = 0b00000001;
					sender.setZeroCross(0);
				}


				for (int i = 0; i < 4; i++)
 34e:	1f 4f       	sbci	r17, 0xFF	; 255
 350:	04 30       	cpi	r16, 0x04	; 4
 352:	11 05       	cpc	r17, r1
 354:	f1 f6       	brne	.-68     	; 0x312 <main+0x132>
 356:	75 b8       	out	0x05, r7	; 5
					PORTC = 0;
					TCCR0B |= 0b00000000;
					TIFR0 = 0b00000001;
					sender.setZeroCross(0);
				}							
				PORTB = 0b11111111;
 358:	80 92 22 02 	sts	0x0222, r8	; 0x800222 <modtaget>

			}
		modtaget = '0';
 35c:	63 cf       	rjmp	.-314    	; 0x224 <main+0x44>

0000035e <_GLOBAL__sub_I_stopbit>:
	UART uart0;
	int adresse[6];
	int kommando[6];
	
    /* Replace with your application code */
    while (1) 
 35e:	80 e2       	ldi	r24, 0x20	; 32

//volatile int startbit[4] = {1,1,1,0};
volatile int stopbit[4] = {0,1,1,1};
//volatile int zeroCross = 0;
volatile char modtaget;
Transmitter sender;
 360:	92 e0       	ldi	r25, 0x02	; 2
 362:	01 c0       	rjmp	.+2      	; 0x366 <_ZN11TransmitterC1Ev>
 364:	08 95       	ret

00000366 <_ZN11TransmitterC1Ev>:
	

// default constructor
Transmitter::Transmitter()
{
	zeroCross = 0;
 366:	fc 01       	movw	r30, r24
 368:	11 82       	std	Z+1, r1	; 0x01
 36a:	10 82       	st	Z, r1
 36c:	08 95       	ret

0000036e <_ZN11Transmitter12getZeroCrossEv>:


int Transmitter::getZeroCross()
{
	return zeroCross;
}
 36e:	fc 01       	movw	r30, r24
 370:	80 81       	ld	r24, Z
 372:	91 81       	ldd	r25, Z+1	; 0x01
 374:	08 95       	ret

00000376 <_ZN11Transmitter12setZeroCrossEi>:

void Transmitter::setZeroCross(int x)
{
	if (x == 1 || x == 0)
 376:	62 30       	cpi	r22, 0x02	; 2
 378:	71 05       	cpc	r23, r1
 37a:	18 f4       	brcc	.+6      	; 0x382 <_ZN11Transmitter12setZeroCrossEi+0xc>
	{
		zeroCross = x;
 37c:	fc 01       	movw	r30, r24
 37e:	71 83       	std	Z+1, r23	; 0x01
 380:	60 83       	st	Z, r22
 382:	08 95       	ret

00000384 <_ZN11Transmitter13sendStartBitsEv>:
	}
}

void Transmitter::sendStartBits()
{
 384:	fc 01       	movw	r30, r24
 386:	a8 e0       	ldi	r26, 0x08	; 8
 388:	b2 e0       	ldi	r27, 0x02	; 2
 38a:	60 e1       	ldi	r22, 0x10	; 16
 38c:	72 e0       	ldi	r23, 0x02	; 2
		TCCR0B |= 0b00000010;
		while ((TIFR0 & (1<<0)) == 0)
		{}
		//PORTC = 0;
		TCCR0B |= 0b00000000;
		TIFR0 = 0b00000001;
 38e:	41 e0       	ldi	r20, 0x01	; 1

void Transmitter::sendStartBits()
{
	for (int i = 0; i < 4; i++)
	{
		while (zeroCross==0)
 390:	80 81       	ld	r24, Z
 392:	91 81       	ldd	r25, Z+1	; 0x01
 394:	89 2b       	or	r24, r25
 396:	39 f4       	brne	.+14     	; 0x3a6 <_ZN11Transmitter13sendStartBitsEv+0x22>
		{PORTB = PINB | 0b00000001;}
 398:	93 b1       	in	r25, 0x03	; 3
 39a:	91 60       	ori	r25, 0x01	; 1
 39c:	95 b9       	out	0x05, r25	; 5

void Transmitter::sendStartBits()
{
	for (int i = 0; i < 4; i++)
	{
		while (zeroCross==0)
 39e:	20 81       	ld	r18, Z
 3a0:	31 81       	ldd	r19, Z+1	; 0x01
 3a2:	23 2b       	or	r18, r19
 3a4:	c9 f3       	breq	.-14     	; 0x398 <_ZN11Transmitter13sendStartBitsEv+0x14>
		{PORTB = PINB | 0b00000001;}
		PORTC = startbit[i];
 3a6:	8c 91       	ld	r24, X
 3a8:	12 96       	adiw	r26, 0x02	; 2
 3aa:	88 b9       	out	0x08, r24	; 8
		TCCR0A |= 0b00000000;
 3ac:	84 b5       	in	r24, 0x24	; 36
 3ae:	84 bd       	out	0x24, r24	; 36
		TCCR0B |= 0b00000010;
 3b0:	85 b5       	in	r24, 0x25	; 37
 3b2:	82 60       	ori	r24, 0x02	; 2
 3b4:	85 bd       	out	0x25, r24	; 37
		while ((TIFR0 & (1<<0)) == 0)
 3b6:	a8 9b       	sbis	0x15, 0	; 21
 3b8:	fe cf       	rjmp	.-4      	; 0x3b6 <_ZN11Transmitter13sendStartBitsEv+0x32>
		{}
		//PORTC = 0;
		TCCR0B |= 0b00000000;
 3ba:	85 b5       	in	r24, 0x25	; 37
 3bc:	85 bd       	out	0x25, r24	; 37
		TIFR0 = 0b00000001;
 3be:	45 bb       	out	0x15, r20	; 21
		zeroCross = 0;
 3c0:	11 82       	std	Z+1, r1	; 0x01
 3c2:	10 82       	st	Z, r1
	}
}

void Transmitter::sendStartBits()
{
	for (int i = 0; i < 4; i++)
 3c4:	a6 17       	cp	r26, r22
 3c6:	b7 07       	cpc	r27, r23
 3c8:	19 f7       	brne	.-58     	; 0x390 <_ZN11Transmitter13sendStartBitsEv+0xc>
		//PORTC = 0;
		TCCR0B |= 0b00000000;
		TIFR0 = 0b00000001;
		zeroCross = 0;
	}
}
 3ca:	08 95       	ret

000003cc <_ZN4UARTC1Ev>:
#include "UART.h"

// default constructor
UART::UART()
{
	UCSR0B = 0b10011000;			// Tænder for sender og modtager + enabler interupt ved modtagelse
 3cc:	88 e9       	ldi	r24, 0x98	; 152
 3ce:	80 93 c1 00 	sts	0x00C1, r24	; 0x8000c1 <__TEXT_REGION_LENGTH__+0x7c00c1>
	UBRR0 = 103;					// Værdien gør at baud raten er 9600
 3d2:	87 e6       	ldi	r24, 0x67	; 103
 3d4:	90 e0       	ldi	r25, 0x00	; 0
 3d6:	90 93 c5 00 	sts	0x00C5, r25	; 0x8000c5 <__TEXT_REGION_LENGTH__+0x7c00c5>
 3da:	80 93 c4 00 	sts	0x00C4, r24	; 0x8000c4 <__TEXT_REGION_LENGTH__+0x7c00c4>
	UCSR0C = 0b00000110;			// bit 0 gør ingenting
 3de:	86 e0       	ldi	r24, 0x06	; 6
 3e0:	80 93 c2 00 	sts	0x00C2, r24	; 0x8000c2 <__TEXT_REGION_LENGTH__+0x7c00c2>
 3e4:	08 95       	ret

000003e6 <_ZN4UART8SendCharEc>:
} //UART

void UART::SendChar(char Tegn)
{
	// <---- Skriv din kode her
	while((0b00100000 & UCSR0A) == 0)
 3e6:	e0 ec       	ldi	r30, 0xC0	; 192
 3e8:	f0 e0       	ldi	r31, 0x00	; 0
 3ea:	80 81       	ld	r24, Z
 3ec:	85 ff       	sbrs	r24, 5
 3ee:	fd cf       	rjmp	.-6      	; 0x3ea <_ZN4UART8SendCharEc+0x4>
	{}
	UDR0 = Tegn;
 3f0:	60 93 c6 00 	sts	0x00C6, r22	; 0x8000c6 <__TEXT_REGION_LENGTH__+0x7c00c6>
 3f4:	08 95       	ret

000003f6 <_ZN4UART10SendStringEPc>:
}

void UART::SendString(char* Streng)
{
 3f6:	0f 93       	push	r16
 3f8:	1f 93       	push	r17
 3fa:	cf 93       	push	r28
 3fc:	df 93       	push	r29
 3fe:	eb 01       	movw	r28, r22
	while (*Streng != 0)
 400:	68 81       	ld	r22, Y
 402:	66 23       	and	r22, r22
 404:	39 f0       	breq	.+14     	; 0x414 <__LOCK_REGION_LENGTH__+0x14>
 406:	8c 01       	movw	r16, r24
 408:	21 96       	adiw	r28, 0x01	; 1
	{
		SendChar(*Streng);
 40a:	c8 01       	movw	r24, r16
 40c:	ec df       	rcall	.-40     	; 0x3e6 <_ZN4UART8SendCharEc>
	UDR0 = Tegn;
}

void UART::SendString(char* Streng)
{
	while (*Streng != 0)
 40e:	69 91       	ld	r22, Y+
 410:	61 11       	cpse	r22, r1
 412:	fb cf       	rjmp	.-10     	; 0x40a <__LOCK_REGION_LENGTH__+0xa>
	{
		SendChar(*Streng);
		Streng++;
	}
 414:	df 91       	pop	r29
 416:	cf 91       	pop	r28
 418:	1f 91       	pop	r17
 41a:	0f 91       	pop	r16
 41c:	08 95       	ret

0000041e <__tablejump2__>:
 41e:	ee 0f       	add	r30, r30
 420:	ff 1f       	adc	r31, r31
 422:	88 1f       	adc	r24, r24
 424:	8b bf       	out	0x3b, r24	; 59
 426:	07 90       	elpm	r0, Z+
 428:	f6 91       	elpm	r31, Z
 42a:	e0 2d       	mov	r30, r0
 42c:	19 94       	eijmp

0000042e <_exit>:
 42e:	f8 94       	cli

00000430 <__stop_program>:
 430:	ff cf       	rjmp	.-2      	; 0x430 <__stop_program>
