
Reciever.elf:     file format elf32-avr

Sections:
Idx Name          Size      VMA       LMA       File off  Algn
  0 .data         0000003c  00800200  000006d0  00000764  2**0
                  CONTENTS, ALLOC, LOAD, DATA
  1 .text         000006d0  00000000  00000000  00000094  2**1
                  CONTENTS, ALLOC, LOAD, READONLY, CODE
  2 .bss          00000017  0080023c  0080023c  000007a0  2**0
                  ALLOC
  3 .comment      00000030  00000000  00000000  000007a0  2**0
                  CONTENTS, READONLY
  4 .note.gnu.avr.deviceinfo 00000040  00000000  00000000  000007d0  2**2
                  CONTENTS, READONLY
  5 .debug_aranges 00000110  00000000  00000000  00000810  2**0
                  CONTENTS, READONLY, DEBUGGING
  6 .debug_info   00001f98  00000000  00000000  00000920  2**0
                  CONTENTS, READONLY, DEBUGGING
  7 .debug_abbrev 00001142  00000000  00000000  000028b8  2**0
                  CONTENTS, READONLY, DEBUGGING
  8 .debug_line   00000939  00000000  00000000  000039fa  2**0
                  CONTENTS, READONLY, DEBUGGING
  9 .debug_frame  000002a0  00000000  00000000  00004334  2**2
                  CONTENTS, READONLY, DEBUGGING
 10 .debug_str    00000b4f  00000000  00000000  000045d4  2**0
                  CONTENTS, READONLY, DEBUGGING
 11 .debug_loc    0000089b  00000000  00000000  00005123  2**0
                  CONTENTS, READONLY, DEBUGGING
 12 .debug_ranges 000000e0  00000000  00000000  000059be  2**0
                  CONTENTS, READONLY, DEBUGGING

Disassembly of section .text:

00000000 <__vectors>:
   0:	73 c0       	rjmp	.+230    	; 0xe8 <__dtors_end>
   2:	00 00       	nop
   4:	05 c1       	rjmp	.+522    	; 0x210 <__vector_1>
   6:	00 00       	nop
   8:	9d c0       	rjmp	.+314    	; 0x144 <__bad_interrupt>
   a:	00 00       	nop
   c:	9b c0       	rjmp	.+310    	; 0x144 <__bad_interrupt>
   e:	00 00       	nop
  10:	99 c0       	rjmp	.+306    	; 0x144 <__bad_interrupt>
  12:	00 00       	nop
  14:	97 c0       	rjmp	.+302    	; 0x144 <__bad_interrupt>
  16:	00 00       	nop
  18:	95 c0       	rjmp	.+298    	; 0x144 <__bad_interrupt>
  1a:	00 00       	nop
  1c:	93 c0       	rjmp	.+294    	; 0x144 <__bad_interrupt>
  1e:	00 00       	nop
  20:	91 c0       	rjmp	.+290    	; 0x144 <__bad_interrupt>
  22:	00 00       	nop
  24:	8f c0       	rjmp	.+286    	; 0x144 <__bad_interrupt>
  26:	00 00       	nop
  28:	8d c0       	rjmp	.+282    	; 0x144 <__bad_interrupt>
  2a:	00 00       	nop
  2c:	8b c0       	rjmp	.+278    	; 0x144 <__bad_interrupt>
  2e:	00 00       	nop
  30:	89 c0       	rjmp	.+274    	; 0x144 <__bad_interrupt>
  32:	00 00       	nop
  34:	87 c0       	rjmp	.+270    	; 0x144 <__bad_interrupt>
  36:	00 00       	nop
  38:	85 c0       	rjmp	.+266    	; 0x144 <__bad_interrupt>
  3a:	00 00       	nop
  3c:	83 c0       	rjmp	.+262    	; 0x144 <__bad_interrupt>
  3e:	00 00       	nop
  40:	81 c0       	rjmp	.+258    	; 0x144 <__bad_interrupt>
  42:	00 00       	nop
  44:	7f c0       	rjmp	.+254    	; 0x144 <__bad_interrupt>
  46:	00 00       	nop
  48:	7d c0       	rjmp	.+250    	; 0x144 <__bad_interrupt>
  4a:	00 00       	nop
  4c:	7b c0       	rjmp	.+246    	; 0x144 <__bad_interrupt>
  4e:	00 00       	nop
  50:	79 c0       	rjmp	.+242    	; 0x144 <__bad_interrupt>
  52:	00 00       	nop
  54:	77 c0       	rjmp	.+238    	; 0x144 <__bad_interrupt>
  56:	00 00       	nop
  58:	75 c0       	rjmp	.+234    	; 0x144 <__bad_interrupt>
  5a:	00 00       	nop
  5c:	73 c0       	rjmp	.+230    	; 0x144 <__bad_interrupt>
  5e:	00 00       	nop
  60:	71 c0       	rjmp	.+226    	; 0x144 <__bad_interrupt>
  62:	00 00       	nop
  64:	6f c0       	rjmp	.+222    	; 0x144 <__bad_interrupt>
  66:	00 00       	nop
  68:	6d c0       	rjmp	.+218    	; 0x144 <__bad_interrupt>
  6a:	00 00       	nop
  6c:	6b c0       	rjmp	.+214    	; 0x144 <__bad_interrupt>
  6e:	00 00       	nop
  70:	69 c0       	rjmp	.+210    	; 0x144 <__bad_interrupt>
  72:	00 00       	nop
  74:	67 c0       	rjmp	.+206    	; 0x144 <__bad_interrupt>
  76:	00 00       	nop
  78:	65 c0       	rjmp	.+202    	; 0x144 <__bad_interrupt>
  7a:	00 00       	nop
  7c:	63 c0       	rjmp	.+198    	; 0x144 <__bad_interrupt>
  7e:	00 00       	nop
  80:	61 c0       	rjmp	.+194    	; 0x144 <__bad_interrupt>
  82:	00 00       	nop
  84:	5f c0       	rjmp	.+190    	; 0x144 <__bad_interrupt>
  86:	00 00       	nop
  88:	5d c0       	rjmp	.+186    	; 0x144 <__bad_interrupt>
  8a:	00 00       	nop
  8c:	5b c0       	rjmp	.+182    	; 0x144 <__bad_interrupt>
  8e:	00 00       	nop
  90:	59 c0       	rjmp	.+178    	; 0x144 <__bad_interrupt>
  92:	00 00       	nop
  94:	57 c0       	rjmp	.+174    	; 0x144 <__bad_interrupt>
  96:	00 00       	nop
  98:	55 c0       	rjmp	.+170    	; 0x144 <__bad_interrupt>
  9a:	00 00       	nop
  9c:	53 c0       	rjmp	.+166    	; 0x144 <__bad_interrupt>
  9e:	00 00       	nop
  a0:	51 c0       	rjmp	.+162    	; 0x144 <__bad_interrupt>
  a2:	00 00       	nop
  a4:	4f c0       	rjmp	.+158    	; 0x144 <__bad_interrupt>
  a6:	00 00       	nop
  a8:	4d c0       	rjmp	.+154    	; 0x144 <__bad_interrupt>
  aa:	00 00       	nop
  ac:	4b c0       	rjmp	.+150    	; 0x144 <__bad_interrupt>
  ae:	00 00       	nop
  b0:	49 c0       	rjmp	.+146    	; 0x144 <__bad_interrupt>
  b2:	00 00       	nop
  b4:	47 c0       	rjmp	.+142    	; 0x144 <__bad_interrupt>
  b6:	00 00       	nop
  b8:	45 c0       	rjmp	.+138    	; 0x144 <__bad_interrupt>
  ba:	00 00       	nop
  bc:	43 c0       	rjmp	.+134    	; 0x144 <__bad_interrupt>
  be:	00 00       	nop
  c0:	41 c0       	rjmp	.+130    	; 0x144 <__bad_interrupt>
  c2:	00 00       	nop
  c4:	3f c0       	rjmp	.+126    	; 0x144 <__bad_interrupt>
  c6:	00 00       	nop
  c8:	3d c0       	rjmp	.+122    	; 0x144 <__bad_interrupt>
  ca:	00 00       	nop
  cc:	3b c0       	rjmp	.+118    	; 0x144 <__bad_interrupt>
  ce:	00 00       	nop
  d0:	39 c0       	rjmp	.+114    	; 0x144 <__bad_interrupt>
  d2:	00 00       	nop
  d4:	37 c0       	rjmp	.+110    	; 0x144 <__bad_interrupt>
  d6:	00 00       	nop
  d8:	35 c0       	rjmp	.+106    	; 0x144 <__bad_interrupt>
  da:	00 00       	nop
  dc:	33 c0       	rjmp	.+102    	; 0x144 <__bad_interrupt>
  de:	00 00       	nop
  e0:	31 c0       	rjmp	.+98     	; 0x144 <__bad_interrupt>
	...

000000e4 <__ctors_start>:
  e4:	33 01       	movw	r6, r6

000000e6 <__ctors_end>:
  e6:	3a 01       	movw	r6, r20

000000e8 <__dtors_end>:
  e8:	11 24       	eor	r1, r1
  ea:	1f be       	out	0x3f, r1	; 63
  ec:	cf ef       	ldi	r28, 0xFF	; 255
  ee:	d1 e2       	ldi	r29, 0x21	; 33
  f0:	de bf       	out	0x3e, r29	; 62
  f2:	cd bf       	out	0x3d, r28	; 61
  f4:	00 e0       	ldi	r16, 0x00	; 0
  f6:	0c bf       	out	0x3c, r16	; 60

000000f8 <__do_copy_data>:
  f8:	12 e0       	ldi	r17, 0x02	; 2
  fa:	a0 e0       	ldi	r26, 0x00	; 0
  fc:	b2 e0       	ldi	r27, 0x02	; 2
  fe:	e0 ed       	ldi	r30, 0xD0	; 208
 100:	f6 e0       	ldi	r31, 0x06	; 6
 102:	00 e0       	ldi	r16, 0x00	; 0
 104:	0b bf       	out	0x3b, r16	; 59
 106:	02 c0       	rjmp	.+4      	; 0x10c <__do_copy_data+0x14>
 108:	07 90       	elpm	r0, Z+
 10a:	0d 92       	st	X+, r0
 10c:	ac 33       	cpi	r26, 0x3C	; 60
 10e:	b1 07       	cpc	r27, r17
 110:	d9 f7       	brne	.-10     	; 0x108 <__do_copy_data+0x10>

00000112 <__do_clear_bss>:
 112:	22 e0       	ldi	r18, 0x02	; 2
 114:	ac e3       	ldi	r26, 0x3C	; 60
 116:	b2 e0       	ldi	r27, 0x02	; 2
 118:	01 c0       	rjmp	.+2      	; 0x11c <.do_clear_bss_start>

0000011a <.do_clear_bss_loop>:
 11a:	1d 92       	st	X+, r1

0000011c <.do_clear_bss_start>:
 11c:	a3 35       	cpi	r26, 0x53	; 83
 11e:	b2 07       	cpc	r27, r18
 120:	e1 f7       	brne	.-8      	; 0x11a <.do_clear_bss_loop>

00000122 <__do_global_ctors>:
 122:	10 e0       	ldi	r17, 0x00	; 0
 124:	c3 e7       	ldi	r28, 0x73	; 115
 126:	d0 e0       	ldi	r29, 0x00	; 0
 128:	00 e0       	ldi	r16, 0x00	; 0
 12a:	05 c0       	rjmp	.+10     	; 0x136 <__do_global_ctors+0x14>
 12c:	21 97       	sbiw	r28, 0x01	; 1
 12e:	01 09       	sbc	r16, r1
 130:	80 2f       	mov	r24, r16
 132:	fe 01       	movw	r30, r28
 134:	81 d2       	rcall	.+1282   	; 0x638 <__tablejump2__>
 136:	c2 37       	cpi	r28, 0x72	; 114
 138:	d1 07       	cpc	r29, r17
 13a:	80 e0       	ldi	r24, 0x00	; 0
 13c:	08 07       	cpc	r16, r24
 13e:	b1 f7       	brne	.-20     	; 0x12c <__do_global_ctors+0xa>
 140:	13 d0       	rcall	.+38     	; 0x168 <main>
 142:	b5 c2       	rjmp	.+1386   	; 0x6ae <__do_global_dtors>

00000144 <__bad_interrupt>:
 144:	5d cf       	rjmp	.-326    	; 0x0 <__vectors>

00000146 <_Z13initInterupt0v>:
 146:	78 94       	sei
 148:	e8 9a       	sbi	0x1d, 0	; 29
 14a:	e9 e6       	ldi	r30, 0x69	; 105
 14c:	f0 e0       	ldi	r31, 0x00	; 0
 14e:	80 81       	ld	r24, Z
 150:	81 60       	ori	r24, 0x01	; 1
 152:	80 83       	st	Z, r24
 154:	08 95       	ret

00000156 <_Z7initADCv>:
 156:	87 e8       	ldi	r24, 0x87	; 135
 158:	80 93 7a 00 	sts	0x007A, r24	; 0x80007a <__TEXT_REGION_LENGTH__+0x7c007a>
 15c:	80 e4       	ldi	r24, 0x40	; 64
 15e:	80 93 7c 00 	sts	0x007C, r24	; 0x80007c <__TEXT_REGION_LENGTH__+0x7c007c>
 162:	10 92 7b 00 	sts	0x007B, r1	; 0x80007b <__TEXT_REGION_LENGTH__+0x7c007b>
 166:	08 95       	ret

00000168 <main>:
 168:	cf 93       	push	r28
 16a:	df 93       	push	r29
 16c:	1f 92       	push	r1
 16e:	cd b7       	in	r28, 0x3d	; 61
 170:	de b7       	in	r29, 0x3e	; 62
 172:	ce 01       	movw	r24, r28
 174:	01 96       	adiw	r24, 0x01	; 1
 176:	14 d2       	rcall	.+1064   	; 0x5a0 <_ZN4UARTC1Ev>
 178:	10 ba       	out	0x10, r1	; 16
 17a:	1a b8       	out	0x0a, r1	; 10
 17c:	8f ef       	ldi	r24, 0xFF	; 255
 17e:	84 b9       	out	0x04, r24	; 4
 180:	15 b8       	out	0x05, r1	; 5
 182:	e1 df       	rcall	.-62     	; 0x146 <_Z13initInterupt0v>
 184:	e8 df       	rcall	.-48     	; 0x156 <_Z7initADCv>
 186:	8d e3       	ldi	r24, 0x3D	; 61
 188:	92 e0       	ldi	r25, 0x02	; 2
 18a:	a4 d0       	rcall	.+328    	; 0x2d4 <_ZN8Reciever14setAdresseBitsEv>
 18c:	8d e3       	ldi	r24, 0x3D	; 61
 18e:	92 e0       	ldi	r25, 0x02	; 2
 190:	05 d1       	rcall	.+522    	; 0x39c <_ZN8Reciever14getAdresseBitsEv>
 192:	bc 01       	movw	r22, r24
 194:	ce 01       	movw	r24, r28
 196:	01 96       	adiw	r24, 0x01	; 1
 198:	2c d2       	rcall	.+1112   	; 0x5f2 <_ZN4UART11SendIntegerEi>
 19a:	66 e3       	ldi	r22, 0x36	; 54
 19c:	72 e0       	ldi	r23, 0x02	; 2
 19e:	ce 01       	movw	r24, r28
 1a0:	01 96       	adiw	r24, 0x01	; 1
 1a2:	13 d2       	rcall	.+1062   	; 0x5ca <_ZN4UART10SendStringEPc>
 1a4:	60 e0       	ldi	r22, 0x00	; 0
 1a6:	72 e0       	ldi	r23, 0x02	; 2
 1a8:	ce 01       	movw	r24, r28
 1aa:	01 96       	adiw	r24, 0x01	; 1
 1ac:	0e d2       	rcall	.+1052   	; 0x5ca <_ZN4UART10SendStringEPc>
 1ae:	8d e3       	ldi	r24, 0x3D	; 61
 1b0:	92 e0       	ldi	r25, 0x02	; 2
 1b2:	40 d1       	rcall	.+640    	; 0x434 <_ZN8Reciever13readStartBitsEv>
 1b4:	01 97       	sbiw	r24, 0x01	; 1
 1b6:	d9 f7       	brne	.-10     	; 0x1ae <main+0x46>
 1b8:	8d e3       	ldi	r24, 0x3D	; 61
 1ba:	92 e0       	ldi	r25, 0x02	; 2
 1bc:	61 d1       	rcall	.+706    	; 0x480 <_ZN8Reciever15readAdresseBitsEv>
 1be:	8c 01       	movw	r16, r24
 1c0:	8d e3       	ldi	r24, 0x3D	; 61
 1c2:	92 e0       	ldi	r25, 0x02	; 2
 1c4:	8c d1       	rcall	.+792    	; 0x4de <_ZN8Reciever12readDataBitsEv>
 1c6:	7c 01       	movw	r14, r24
 1c8:	8d e3       	ldi	r24, 0x3D	; 61
 1ca:	92 e0       	ldi	r25, 0x02	; 2
 1cc:	b7 d1       	rcall	.+878    	; 0x53c <_ZN8Reciever12readStopBitsEv>
 1ce:	8d e3       	ldi	r24, 0x3D	; 61
 1d0:	92 e0       	ldi	r25, 0x02	; 2
 1d2:	e4 d0       	rcall	.+456    	; 0x39c <_ZN8Reciever14getAdresseBitsEv>
 1d4:	08 17       	cp	r16, r24
 1d6:	19 07       	cpc	r17, r25
 1d8:	51 f7       	brne	.-44     	; 0x1ae <main+0x46>
 1da:	62 e1       	ldi	r22, 0x12	; 18
 1dc:	72 e0       	ldi	r23, 0x02	; 2
 1de:	ce 01       	movw	r24, r28
 1e0:	01 96       	adiw	r24, 0x01	; 1
 1e2:	f3 d1       	rcall	.+998    	; 0x5ca <_ZN4UART10SendStringEPc>
 1e4:	85 e1       	ldi	r24, 0x15	; 21
 1e6:	e8 16       	cp	r14, r24
 1e8:	f1 04       	cpc	r15, r1
 1ea:	41 f0       	breq	.+16     	; 0x1fc <main+0x94>
 1ec:	8a e2       	ldi	r24, 0x2A	; 42
 1ee:	e8 16       	cp	r14, r24
 1f0:	f1 04       	cpc	r15, r1
 1f2:	41 f4       	brne	.+16     	; 0x204 <main+0x9c>
 1f4:	8d e3       	ldi	r24, 0x3D	; 61
 1f6:	92 e0       	ldi	r25, 0x02	; 2
 1f8:	ce d1       	rcall	.+924    	; 0x596 <_ZN8Reciever11turnOnLightEv>
 1fa:	d9 cf       	rjmp	.-78     	; 0x1ae <main+0x46>
 1fc:	8d e3       	ldi	r24, 0x3D	; 61
 1fe:	92 e0       	ldi	r25, 0x02	; 2
 200:	cd d1       	rcall	.+922    	; 0x59c <_ZN8Reciever12turnOffLightEv>
 202:	d5 cf       	rjmp	.-86     	; 0x1ae <main+0x46>
 204:	65 e2       	ldi	r22, 0x25	; 37
 206:	72 e0       	ldi	r23, 0x02	; 2
 208:	ce 01       	movw	r24, r28
 20a:	01 96       	adiw	r24, 0x01	; 1
 20c:	de d1       	rcall	.+956    	; 0x5ca <_ZN4UART10SendStringEPc>
 20e:	cf cf       	rjmp	.-98     	; 0x1ae <main+0x46>

00000210 <__vector_1>:
 210:	1f 92       	push	r1
 212:	0f 92       	push	r0
 214:	0f b6       	in	r0, 0x3f	; 63
 216:	0f 92       	push	r0
 218:	11 24       	eor	r1, r1
 21a:	0b b6       	in	r0, 0x3b	; 59
 21c:	0f 92       	push	r0
 21e:	2f 93       	push	r18
 220:	3f 93       	push	r19
 222:	4f 93       	push	r20
 224:	5f 93       	push	r21
 226:	6f 93       	push	r22
 228:	7f 93       	push	r23
 22a:	8f 93       	push	r24
 22c:	9f 93       	push	r25
 22e:	af 93       	push	r26
 230:	bf 93       	push	r27
 232:	ef 93       	push	r30
 234:	ff 93       	push	r31
 236:	61 e0       	ldi	r22, 0x01	; 1
 238:	70 e0       	ldi	r23, 0x00	; 0
 23a:	8d e3       	ldi	r24, 0x3D	; 61
 23c:	92 e0       	ldi	r25, 0x02	; 2
 23e:	46 d0       	rcall	.+140    	; 0x2cc <_ZN8Reciever12setZeroCrossEi>
 240:	ff 91       	pop	r31
 242:	ef 91       	pop	r30
 244:	bf 91       	pop	r27
 246:	af 91       	pop	r26
 248:	9f 91       	pop	r25
 24a:	8f 91       	pop	r24
 24c:	7f 91       	pop	r23
 24e:	6f 91       	pop	r22
 250:	5f 91       	pop	r21
 252:	4f 91       	pop	r20
 254:	3f 91       	pop	r19
 256:	2f 91       	pop	r18
 258:	0f 90       	pop	r0
 25a:	0b be       	out	0x3b, r0	; 59
 25c:	0f 90       	pop	r0
 25e:	0f be       	out	0x3f, r0	; 63
 260:	0f 90       	pop	r0
 262:	1f 90       	pop	r1
 264:	18 95       	reti

00000266 <_GLOBAL__sub_I_Reciever>:
 266:	8d e3       	ldi	r24, 0x3D	; 61
 268:	92 e0       	ldi	r25, 0x02	; 2
 26a:	08 d0       	rcall	.+16     	; 0x27c <_ZN8RecieverC1Ev>
 26c:	8c e3       	ldi	r24, 0x3C	; 60
 26e:	92 e0       	ldi	r25, 0x02	; 2
 270:	97 c1       	rjmp	.+814    	; 0x5a0 <_ZN4UARTC1Ev>
 272:	08 95       	ret

00000274 <_GLOBAL__sub_D_Reciever>:
 274:	8d e3       	ldi	r24, 0x3D	; 61
 276:	92 e0       	ldi	r25, 0x02	; 2
 278:	28 c0       	rjmp	.+80     	; 0x2ca <_ZN8RecieverD1Ev>
 27a:	08 95       	ret

0000027c <_ZN8RecieverC1Ev>:
{
		return nyesteBit_;		
}
void Reciever::setNyesteBit(int nyestebit)
{
		nyesteBit_ = nyestebit;
 27c:	cf 93       	push	r28
 27e:	df 93       	push	r29
 280:	1f 92       	push	r1
 282:	cd b7       	in	r28, 0x3d	; 61
 284:	de b7       	in	r29, 0x3e	; 62
 286:	fc 01       	movw	r30, r24
 288:	11 82       	std	Z+1, r1	; 0x01
 28a:	10 82       	st	Z, r1
 28c:	13 82       	std	Z+3, r1	; 0x03
 28e:	12 82       	std	Z+2, r1	; 0x02
 290:	17 86       	std	Z+15, r1	; 0x0f
 292:	16 86       	std	Z+14, r1	; 0x0e
 294:	11 8a       	std	Z+17, r1	; 0x11
 296:	10 8a       	std	Z+16, r1	; 0x10
 298:	15 82       	std	Z+5, r1	; 0x05
 29a:	14 82       	std	Z+4, r1	; 0x04
 29c:	8e e0       	ldi	r24, 0x0E	; 14
 29e:	90 e0       	ldi	r25, 0x00	; 0
 2a0:	97 83       	std	Z+7, r25	; 0x07
 2a2:	86 83       	std	Z+6, r24	; 0x06
 2a4:	87 e0       	ldi	r24, 0x07	; 7
 2a6:	90 e0       	ldi	r25, 0x00	; 0
 2a8:	91 87       	std	Z+9, r25	; 0x09
 2aa:	80 87       	std	Z+8, r24	; 0x08
 2ac:	85 e1       	ldi	r24, 0x15	; 21
 2ae:	90 e0       	ldi	r25, 0x00	; 0
 2b0:	93 87       	std	Z+11, r25	; 0x0b
 2b2:	82 87       	std	Z+10, r24	; 0x0a
 2b4:	8a e2       	ldi	r24, 0x2A	; 42
 2b6:	90 e0       	ldi	r25, 0x00	; 0
 2b8:	95 87       	std	Z+13, r25	; 0x0d
 2ba:	84 87       	std	Z+12, r24	; 0x0c
 2bc:	ce 01       	movw	r24, r28
 2be:	01 96       	adiw	r24, 0x01	; 1
 2c0:	6f d1       	rcall	.+734    	; 0x5a0 <_ZN4UARTC1Ev>
 2c2:	0f 90       	pop	r0
 2c4:	df 91       	pop	r29
 2c6:	cf 91       	pop	r28
 2c8:	08 95       	ret

000002ca <_ZN8RecieverD1Ev>:
 2ca:	08 95       	ret

000002cc <_ZN8Reciever12setZeroCrossEi>:
 2cc:	fc 01       	movw	r30, r24
 2ce:	71 83       	std	Z+1, r23	; 0x01
 2d0:	60 83       	st	Z, r22
 2d2:	08 95       	ret

000002d4 <_ZN8Reciever14setAdresseBitsEv>:
	
	return seneste6Bits_;
	
}
void Reciever::setAdresseBits()
{
 2d4:	fc 01       	movw	r30, r24
	while (PINA & 0b01000000)
	{
		if ((PINA & 0b00000001) == 0)
		{
			_delay_ms(250);
			PORTB = PINB ^ 0b00000001;
 2d6:	81 e0       	ldi	r24, 0x01	; 1
		}
		if ((PINA & 0b00000010) == 0)
		{
			_delay_ms(250);
			PORTB = PINB ^ 0b00000010;
 2d8:	52 e0       	ldi	r21, 0x02	; 2
		}
		if ((PINA & 0b00000100) == 0)
		{
			_delay_ms(250);
			PORTB = PINB ^ 0b00000100;
 2da:	44 e0       	ldi	r20, 0x04	; 4
		}
		if ((PINA & 0b00001000) == 0)
		{
			_delay_ms(250);
			PORTB = PINB ^ 0b00001000;
 2dc:	38 e0       	ldi	r19, 0x08	; 8
		}
		if ((PINA & 0b00010000) == 0)
		{
			_delay_ms(250);
			PORTB = PINB ^ 0b00010000;
 2de:	20 e1       	ldi	r18, 0x10	; 16
		}
		if ((PINA & 0b00100000) == 0)
		{
			_delay_ms(250);
			PORTB = PINB ^ 0b00100000;
 2e0:	60 e2       	ldi	r22, 0x20	; 32
	return seneste6Bits_;
	
}
void Reciever::setAdresseBits()
{
	while (PINA & 0b01000000)
 2e2:	06 9b       	sbis	0x00, 6	; 0
 2e4:	55 c0       	rjmp	.+170    	; 0x390 <_ZN8Reciever14setAdresseBitsEv+0xbc>
	{
		if ((PINA & 0b00000001) == 0)
 2e6:	00 99       	sbic	0x00, 0	; 0
 2e8:	0c c0       	rjmp	.+24     	; 0x302 <_ZN8Reciever14setAdresseBitsEv+0x2e>
	#else
		//round up by default
		__ticks_dc = (uint32_t)(ceil(fabs(__tmp)));
	#endif

	__builtin_avr_delay_cycles(__ticks_dc);
 2ea:	7f ef       	ldi	r23, 0xFF	; 255
 2ec:	94 e3       	ldi	r25, 0x34	; 52
 2ee:	ac e0       	ldi	r26, 0x0C	; 12
 2f0:	71 50       	subi	r23, 0x01	; 1
 2f2:	90 40       	sbci	r25, 0x00	; 0
 2f4:	a0 40       	sbci	r26, 0x00	; 0
 2f6:	e1 f7       	brne	.-8      	; 0x2f0 <_ZN8Reciever14setAdresseBitsEv+0x1c>
 2f8:	00 c0       	rjmp	.+0      	; 0x2fa <_ZN8Reciever14setAdresseBitsEv+0x26>
 2fa:	00 00       	nop
		{
			_delay_ms(250);
			PORTB = PINB ^ 0b00000001;
 2fc:	93 b1       	in	r25, 0x03	; 3
 2fe:	98 27       	eor	r25, r24
 300:	95 b9       	out	0x05, r25	; 5
		}
		if ((PINA & 0b00000010) == 0)
 302:	01 99       	sbic	0x00, 1	; 0
 304:	0c c0       	rjmp	.+24     	; 0x31e <_ZN8Reciever14setAdresseBitsEv+0x4a>
 306:	7f ef       	ldi	r23, 0xFF	; 255
 308:	94 e3       	ldi	r25, 0x34	; 52
 30a:	ac e0       	ldi	r26, 0x0C	; 12
 30c:	71 50       	subi	r23, 0x01	; 1
 30e:	90 40       	sbci	r25, 0x00	; 0
 310:	a0 40       	sbci	r26, 0x00	; 0
 312:	e1 f7       	brne	.-8      	; 0x30c <_ZN8Reciever14setAdresseBitsEv+0x38>
 314:	00 c0       	rjmp	.+0      	; 0x316 <_ZN8Reciever14setAdresseBitsEv+0x42>
 316:	00 00       	nop
		{
			_delay_ms(250);
			PORTB = PINB ^ 0b00000010;
 318:	93 b1       	in	r25, 0x03	; 3
 31a:	95 27       	eor	r25, r21
 31c:	95 b9       	out	0x05, r25	; 5
		}
		if ((PINA & 0b00000100) == 0)
 31e:	02 99       	sbic	0x00, 2	; 0
 320:	0c c0       	rjmp	.+24     	; 0x33a <_ZN8Reciever14setAdresseBitsEv+0x66>
 322:	7f ef       	ldi	r23, 0xFF	; 255
 324:	94 e3       	ldi	r25, 0x34	; 52
 326:	ac e0       	ldi	r26, 0x0C	; 12
 328:	71 50       	subi	r23, 0x01	; 1
 32a:	90 40       	sbci	r25, 0x00	; 0
 32c:	a0 40       	sbci	r26, 0x00	; 0
 32e:	e1 f7       	brne	.-8      	; 0x328 <_ZN8Reciever14setAdresseBitsEv+0x54>
 330:	00 c0       	rjmp	.+0      	; 0x332 <_ZN8Reciever14setAdresseBitsEv+0x5e>
 332:	00 00       	nop
		{
			_delay_ms(250);
			PORTB = PINB ^ 0b00000100;
 334:	93 b1       	in	r25, 0x03	; 3
 336:	94 27       	eor	r25, r20
 338:	95 b9       	out	0x05, r25	; 5
		}
		if ((PINA & 0b00001000) == 0)
 33a:	03 99       	sbic	0x00, 3	; 0
 33c:	0c c0       	rjmp	.+24     	; 0x356 <_ZN8Reciever14setAdresseBitsEv+0x82>
 33e:	7f ef       	ldi	r23, 0xFF	; 255
 340:	94 e3       	ldi	r25, 0x34	; 52
 342:	ac e0       	ldi	r26, 0x0C	; 12
 344:	71 50       	subi	r23, 0x01	; 1
 346:	90 40       	sbci	r25, 0x00	; 0
 348:	a0 40       	sbci	r26, 0x00	; 0
 34a:	e1 f7       	brne	.-8      	; 0x344 <_ZN8Reciever14setAdresseBitsEv+0x70>
 34c:	00 c0       	rjmp	.+0      	; 0x34e <_ZN8Reciever14setAdresseBitsEv+0x7a>
 34e:	00 00       	nop
		{
			_delay_ms(250);
			PORTB = PINB ^ 0b00001000;
 350:	93 b1       	in	r25, 0x03	; 3
 352:	93 27       	eor	r25, r19
 354:	95 b9       	out	0x05, r25	; 5
		}
		if ((PINA & 0b00010000) == 0)
 356:	04 99       	sbic	0x00, 4	; 0
 358:	0c c0       	rjmp	.+24     	; 0x372 <_ZN8Reciever14setAdresseBitsEv+0x9e>
 35a:	7f ef       	ldi	r23, 0xFF	; 255
 35c:	94 e3       	ldi	r25, 0x34	; 52
 35e:	ac e0       	ldi	r26, 0x0C	; 12
 360:	71 50       	subi	r23, 0x01	; 1
 362:	90 40       	sbci	r25, 0x00	; 0
 364:	a0 40       	sbci	r26, 0x00	; 0
 366:	e1 f7       	brne	.-8      	; 0x360 <_ZN8Reciever14setAdresseBitsEv+0x8c>
 368:	00 c0       	rjmp	.+0      	; 0x36a <_ZN8Reciever14setAdresseBitsEv+0x96>
 36a:	00 00       	nop
		{
			_delay_ms(250);
			PORTB = PINB ^ 0b00010000;
 36c:	93 b1       	in	r25, 0x03	; 3
 36e:	92 27       	eor	r25, r18
 370:	95 b9       	out	0x05, r25	; 5
		}
		if ((PINA & 0b00100000) == 0)
 372:	05 99       	sbic	0x00, 5	; 0
 374:	b6 cf       	rjmp	.-148    	; 0x2e2 <_ZN8Reciever14setAdresseBitsEv+0xe>
 376:	7f ef       	ldi	r23, 0xFF	; 255
 378:	94 e3       	ldi	r25, 0x34	; 52
 37a:	ac e0       	ldi	r26, 0x0C	; 12
 37c:	71 50       	subi	r23, 0x01	; 1
 37e:	90 40       	sbci	r25, 0x00	; 0
 380:	a0 40       	sbci	r26, 0x00	; 0
 382:	e1 f7       	brne	.-8      	; 0x37c <_ZN8Reciever14setAdresseBitsEv+0xa8>
 384:	00 c0       	rjmp	.+0      	; 0x386 <_ZN8Reciever14setAdresseBitsEv+0xb2>
 386:	00 00       	nop
		{
			_delay_ms(250);
			PORTB = PINB ^ 0b00100000;
 388:	93 b1       	in	r25, 0x03	; 3
 38a:	96 27       	eor	r25, r22
 38c:	95 b9       	out	0x05, r25	; 5
 38e:	a9 cf       	rjmp	.-174    	; 0x2e2 <_ZN8Reciever14setAdresseBitsEv+0xe>
		}
	}
		adresseBits_ = PINB;
 390:	83 b1       	in	r24, 0x03	; 3
 392:	90 e0       	ldi	r25, 0x00	; 0
 394:	93 87       	std	Z+11, r25	; 0x0b
 396:	82 87       	std	Z+10, r24	; 0x0a
		PORTB |= 0b01000000;
 398:	2e 9a       	sbi	0x05, 6	; 5
 39a:	08 95       	ret

0000039c <_ZN8Reciever14getAdresseBitsEv>:
}
int Reciever::getAdresseBits()
{
	return adresseBits_;
}
 39c:	fc 01       	movw	r30, r24
 39e:	82 85       	ldd	r24, Z+10	; 0x0a
 3a0:	93 85       	ldd	r25, Z+11	; 0x0b
 3a2:	08 95       	ret

000003a4 <_ZN8Reciever7readADCEv>:
	}
	
	return 1;
}

void Reciever::readADC(){
 3a4:	cf 93       	push	r28
 3a6:	df 93       	push	r29
 3a8:	ec 01       	movw	r28, r24
	
	//// timer
	TCNT0 = 246;			// timer på 1 ms	
 3aa:	86 ef       	ldi	r24, 0xF6	; 246
 3ac:	86 bd       	out	0x26, r24	; 38
	TCCR0A |= 0b00000000;	// starter timer
 3ae:	84 b5       	in	r24, 0x24	; 36
 3b0:	84 bd       	out	0x24, r24	; 36
	TCCR0B |= 0b00000101;	// Prescale på 1024
 3b2:	85 b5       	in	r24, 0x25	; 37
 3b4:	85 60       	ori	r24, 0x05	; 5
 3b6:	85 bd       	out	0x25, r24	; 37
	while((TIFR0 & (1<<0)) == 0)
 3b8:	a8 9b       	sbis	0x15, 0	; 21
 3ba:	fe cf       	rjmp	.-4      	; 0x3b8 <_ZN8Reciever7readADCEv+0x14>
	{}
	TCCR0B = 0b00000000; // slut timer
 3bc:	15 bc       	out	0x25, r1	; 37
	TIFR0 = 0b00000001;
 3be:	81 e0       	ldi	r24, 0x01	; 1
 3c0:	85 bb       	out	0x15, r24	; 21
	//// timer
	
	////ADC start
	ADCSRA |= 0b01000000;
 3c2:	ea e7       	ldi	r30, 0x7A	; 122
 3c4:	f0 e0       	ldi	r31, 0x00	; 0
 3c6:	80 81       	ld	r24, Z
 3c8:	80 64       	ori	r24, 0x40	; 64
 3ca:	80 83       	st	Z, r24
			
	while (ADCSRA & 0b01000000)
 3cc:	80 81       	ld	r24, Z
 3ce:	86 fd       	sbrc	r24, 6
 3d0:	fd cf       	rjmp	.-6      	; 0x3cc <_ZN8Reciever7readADCEv+0x28>
	{}
	
	ADCread_ = ADCW;
 3d2:	60 91 78 00 	lds	r22, 0x0078	; 0x800078 <__TEXT_REGION_LENGTH__+0x7c0078>
 3d6:	70 91 79 00 	lds	r23, 0x0079	; 0x800079 <__TEXT_REGION_LENGTH__+0x7c0079>
 3da:	7f 87       	std	Y+15, r23	; 0x0f
 3dc:	6e 87       	std	Y+14, r22	; 0x0e
	////ADC slut
	////sendet ud på uart
	uart_->SendInteger(ADCread_);
 3de:	8c 89       	ldd	r24, Y+20	; 0x14
 3e0:	9d 89       	ldd	r25, Y+21	; 0x15
 3e2:	07 d1       	rcall	.+526    	; 0x5f2 <_ZN4UART11SendIntegerEi>
	uart_->SendString("\\");
 3e4:	69 e3       	ldi	r22, 0x39	; 57
 3e6:	72 e0       	ldi	r23, 0x02	; 2
 3e8:	8c 89       	ldd	r24, Y+20	; 0x14
 3ea:	9d 89       	ldd	r25, Y+21	; 0x15
 3ec:	ee d0       	rcall	.+476    	; 0x5ca <_ZN4UART10SendStringEPc>
	

	////sætter nyeste bit alt efter hvad adc giver af værdi
	if (((ADCread_ > ADClastRead_) && (ADCread_> 10)) || (ADCread_ > 50))
 3ee:	8e 85       	ldd	r24, Y+14	; 0x0e
 3f0:	9f 85       	ldd	r25, Y+15	; 0x0f
 3f2:	28 89       	ldd	r18, Y+16	; 0x10
 3f4:	39 89       	ldd	r19, Y+17	; 0x11
 3f6:	28 17       	cp	r18, r24
 3f8:	39 07       	cpc	r19, r25
 3fa:	1c f4       	brge	.+6      	; 0x402 <__LOCK_REGION_LENGTH__+0x2>
 3fc:	8b 30       	cpi	r24, 0x0B	; 11
 3fe:	91 05       	cpc	r25, r1
 400:	1c f4       	brge	.+6      	; 0x408 <__LOCK_REGION_LENGTH__+0x8>
 402:	83 33       	cpi	r24, 0x33	; 51
 404:	91 05       	cpc	r25, r1
 406:	2c f0       	brlt	.+10     	; 0x412 <__LOCK_REGION_LENGTH__+0x12>
	{
		nyesteBit_ = 1;			
 408:	21 e0       	ldi	r18, 0x01	; 1
 40a:	30 e0       	ldi	r19, 0x00	; 0
 40c:	3b 83       	std	Y+3, r19	; 0x03
 40e:	2a 83       	std	Y+2, r18	; 0x02
 410:	02 c0       	rjmp	.+4      	; 0x416 <__LOCK_REGION_LENGTH__+0x16>
	}								
	else
	{
		nyesteBit_ = 0; 
 412:	1b 82       	std	Y+3, r1	; 0x03
 414:	1a 82       	std	Y+2, r1	; 0x02
	}
	ADClastRead_ = ADCread_;
 416:	99 8b       	std	Y+17, r25	; 0x11
 418:	88 8b       	std	Y+16, r24	; 0x10
	
	uart_->SendInteger(nyesteBit_);
 41a:	6a 81       	ldd	r22, Y+2	; 0x02
 41c:	7b 81       	ldd	r23, Y+3	; 0x03
 41e:	8c 89       	ldd	r24, Y+20	; 0x14
 420:	9d 89       	ldd	r25, Y+21	; 0x15
 422:	e7 d0       	rcall	.+462    	; 0x5f2 <_ZN4UART11SendIntegerEi>
	uart_->SendString("\\");	
 424:	69 e3       	ldi	r22, 0x39	; 57
 426:	72 e0       	ldi	r23, 0x02	; 2
 428:	8c 89       	ldd	r24, Y+20	; 0x14
 42a:	9d 89       	ldd	r25, Y+21	; 0x15
 42c:	ce d0       	rcall	.+412    	; 0x5ca <_ZN4UART10SendStringEPc>
}
 42e:	df 91       	pop	r29
 430:	cf 91       	pop	r28
 432:	08 95       	ret

00000434 <_ZN8Reciever13readStartBitsEv>:
void Reciever::setNyesteBit(int nyestebit)
{
		nyesteBit_ = nyestebit;
}

int Reciever::readStartBits(){
 434:	cf 93       	push	r28
 436:	df 93       	push	r29
 438:	ec 01       	movw	r28, r24
	seneste6Bits_ = 0;
 43a:	1d 82       	std	Y+5, r1	; 0x05
 43c:	1c 82       	std	Y+4, r1	; 0x04
	counter_ = 0;
 43e:	1b 8a       	std	Y+19, r1	; 0x13
 440:	1a 8a       	std	Y+18, r1	; 0x12
	while(startBits_ != seneste6Bits_){
 442:	4e 81       	ldd	r20, Y+6	; 0x06
 444:	5f 81       	ldd	r21, Y+7	; 0x07
 446:	2c 81       	ldd	r18, Y+4	; 0x04
 448:	3d 81       	ldd	r19, Y+5	; 0x05
 44a:	42 17       	cp	r20, r18
 44c:	53 07       	cpc	r21, r19
 44e:	99 f0       	breq	.+38     	; 0x476 <_ZN8Reciever13readStartBitsEv+0x42>
			if (zeroCross_ == 1)
 450:	88 81       	ld	r24, Y
 452:	99 81       	ldd	r25, Y+1	; 0x01
 454:	01 97       	sbiw	r24, 0x01	; 1
 456:	c9 f7       	brne	.-14     	; 0x44a <_ZN8Reciever13readStartBitsEv+0x16>
			{
		
				
				readADC();
 458:	ce 01       	movw	r24, r28
 45a:	a4 df       	rcall	.-184    	; 0x3a4 <_ZN8Reciever7readADCEv>
				
				seneste6Bits_ = seneste6Bits_ << 1;
				seneste6Bits_ |= nyesteBit_; 
 45c:	8c 81       	ldd	r24, Y+4	; 0x04
 45e:	9d 81       	ldd	r25, Y+5	; 0x05
 460:	88 0f       	add	r24, r24
 462:	99 1f       	adc	r25, r25
 464:	2a 81       	ldd	r18, Y+2	; 0x02
 466:	3b 81       	ldd	r19, Y+3	; 0x03
 468:	82 2b       	or	r24, r18
 46a:	93 2b       	or	r25, r19
 46c:	9d 83       	std	Y+5, r25	; 0x05
 46e:	8c 83       	std	Y+4, r24	; 0x04
				//PORTB = seneste6Bits_;
			
				zeroCross_ = 0;
 470:	19 82       	std	Y+1, r1	; 0x01
 472:	18 82       	st	Y, r1
 474:	e6 cf       	rjmp	.-52     	; 0x442 <_ZN8Reciever13readStartBitsEv+0xe>
	}
	
	
	return 1;
	
}
 476:	81 e0       	ldi	r24, 0x01	; 1
 478:	90 e0       	ldi	r25, 0x00	; 0
 47a:	df 91       	pop	r29
 47c:	cf 91       	pop	r28
 47e:	08 95       	ret

00000480 <_ZN8Reciever15readAdresseBitsEv>:
int Reciever::readAdresseBits(){
 480:	cf 93       	push	r28
 482:	df 93       	push	r29
 484:	ec 01       	movw	r28, r24
	seneste6Bits_ = 0;
 486:	1d 82       	std	Y+5, r1	; 0x05
 488:	1c 82       	std	Y+4, r1	; 0x04
	counter_ = 0;
 48a:	1b 8a       	std	Y+19, r1	; 0x13
 48c:	1a 8a       	std	Y+18, r1	; 0x12
	
	while(adresseBits_ != seneste6Bits_){
 48e:	4a 85       	ldd	r20, Y+10	; 0x0a
 490:	5b 85       	ldd	r21, Y+11	; 0x0b
 492:	8c 81       	ldd	r24, Y+4	; 0x04
 494:	9d 81       	ldd	r25, Y+5	; 0x05
 496:	48 17       	cp	r20, r24
 498:	59 07       	cpc	r21, r25
 49a:	f1 f0       	breq	.+60     	; 0x4d8 <_ZN8Reciever15readAdresseBitsEv+0x58>
		if (zeroCross_ == 1)
 49c:	28 81       	ld	r18, Y
 49e:	39 81       	ldd	r19, Y+1	; 0x01
 4a0:	21 30       	cpi	r18, 0x01	; 1
 4a2:	31 05       	cpc	r19, r1
 4a4:	c1 f7       	brne	.-16     	; 0x496 <_ZN8Reciever15readAdresseBitsEv+0x16>
		{
			if (counter_ < 6){
 4a6:	2a 89       	ldd	r18, Y+18	; 0x12
 4a8:	3b 89       	ldd	r19, Y+19	; 0x13
 4aa:	26 30       	cpi	r18, 0x06	; 6
 4ac:	31 05       	cpc	r19, r1
 4ae:	a4 f4       	brge	.+40     	; 0x4d8 <_ZN8Reciever15readAdresseBitsEv+0x58>
			readADC();
 4b0:	ce 01       	movw	r24, r28
 4b2:	78 df       	rcall	.-272    	; 0x3a4 <_ZN8Reciever7readADCEv>
			
			seneste6Bits_ = seneste6Bits_ << 1;
			seneste6Bits_ |= nyesteBit_;
 4b4:	8c 81       	ldd	r24, Y+4	; 0x04
 4b6:	9d 81       	ldd	r25, Y+5	; 0x05
 4b8:	88 0f       	add	r24, r24
 4ba:	99 1f       	adc	r25, r25
 4bc:	2a 81       	ldd	r18, Y+2	; 0x02
 4be:	3b 81       	ldd	r19, Y+3	; 0x03
 4c0:	82 2b       	or	r24, r18
 4c2:	93 2b       	or	r25, r19
 4c4:	9d 83       	std	Y+5, r25	; 0x05
 4c6:	8c 83       	std	Y+4, r24	; 0x04
			
			zeroCross_ = 0;
 4c8:	19 82       	std	Y+1, r1	; 0x01
 4ca:	18 82       	st	Y, r1
			counter_++;
 4cc:	8a 89       	ldd	r24, Y+18	; 0x12
 4ce:	9b 89       	ldd	r25, Y+19	; 0x13
 4d0:	01 96       	adiw	r24, 0x01	; 1
 4d2:	9b 8b       	std	Y+19, r25	; 0x13
 4d4:	8a 8b       	std	Y+18, r24	; 0x12
 4d6:	db cf       	rjmp	.-74     	; 0x48e <_ZN8Reciever15readAdresseBitsEv+0xe>
		}
	}
	
	return seneste6Bits_;
	
}
 4d8:	df 91       	pop	r29
 4da:	cf 91       	pop	r28
 4dc:	08 95       	ret

000004de <_ZN8Reciever12readDataBitsEv>:
{
	return adresseBits_;
}

int Reciever::readDataBits()
{
 4de:	cf 93       	push	r28
 4e0:	df 93       	push	r29
 4e2:	ec 01       	movw	r28, r24
	seneste6Bits_ = 0;
 4e4:	1d 82       	std	Y+5, r1	; 0x05
 4e6:	1c 82       	std	Y+4, r1	; 0x04
	counter_ = 0;
 4e8:	1b 8a       	std	Y+19, r1	; 0x13
 4ea:	1a 8a       	std	Y+18, r1	; 0x12
	
	while(kommandoBits_ != seneste6Bits_)      // Går ud fra at denne lykke vare 6bit, altså det er lykken som hvor afkoden sker.
 4ec:	4c 85       	ldd	r20, Y+12	; 0x0c
 4ee:	5d 85       	ldd	r21, Y+13	; 0x0d
 4f0:	8c 81       	ldd	r24, Y+4	; 0x04
 4f2:	9d 81       	ldd	r25, Y+5	; 0x05
 4f4:	48 17       	cp	r20, r24
 4f6:	59 07       	cpc	r21, r25
 4f8:	f1 f0       	breq	.+60     	; 0x536 <_ZN8Reciever12readDataBitsEv+0x58>
	{				
		if (zeroCross_ == 1)
 4fa:	28 81       	ld	r18, Y
 4fc:	39 81       	ldd	r19, Y+1	; 0x01
 4fe:	21 30       	cpi	r18, 0x01	; 1
 500:	31 05       	cpc	r19, r1
 502:	c1 f7       	brne	.-16     	; 0x4f4 <_ZN8Reciever12readDataBitsEv+0x16>
		{
			if (counter_ < 6)
 504:	2a 89       	ldd	r18, Y+18	; 0x12
 506:	3b 89       	ldd	r19, Y+19	; 0x13
 508:	26 30       	cpi	r18, 0x06	; 6
 50a:	31 05       	cpc	r19, r1
 50c:	a4 f4       	brge	.+40     	; 0x536 <_ZN8Reciever12readDataBitsEv+0x58>
			{
			readADC();
 50e:	ce 01       	movw	r24, r28
 510:	49 df       	rcall	.-366    	; 0x3a4 <_ZN8Reciever7readADCEv>
			
			seneste6Bits_ = seneste6Bits_ << 1;
			seneste6Bits_ |= nyesteBit_;
 512:	8c 81       	ldd	r24, Y+4	; 0x04
 514:	9d 81       	ldd	r25, Y+5	; 0x05
 516:	88 0f       	add	r24, r24
 518:	99 1f       	adc	r25, r25
 51a:	2a 81       	ldd	r18, Y+2	; 0x02
 51c:	3b 81       	ldd	r19, Y+3	; 0x03
 51e:	82 2b       	or	r24, r18
 520:	93 2b       	or	r25, r19
 522:	9d 83       	std	Y+5, r25	; 0x05
 524:	8c 83       	std	Y+4, r24	; 0x04
			
			zeroCross_ = 0;
 526:	19 82       	std	Y+1, r1	; 0x01
 528:	18 82       	st	Y, r1
			counter_++;
 52a:	8a 89       	ldd	r24, Y+18	; 0x12
 52c:	9b 89       	ldd	r25, Y+19	; 0x13
 52e:	01 96       	adiw	r24, 0x01	; 1
 530:	9b 8b       	std	Y+19, r25	; 0x13
 532:	8a 8b       	std	Y+18, r24	; 0x12
 534:	db cf       	rjmp	.-74     	; 0x4ec <_ZN8Reciever12readDataBitsEv+0xe>
	
	return seneste6Bits_;
	


}
 536:	df 91       	pop	r29
 538:	cf 91       	pop	r28
 53a:	08 95       	ret

0000053c <_ZN8Reciever12readStopBitsEv>:
ABSTRACT:
koden oven over, skal aflæse havd der bliver modtaget (indkodet analog og ikke binært signal)signal 
og så skal den retuner en int som er et afkodet kommando.
*/ 
int Reciever::readStopBits()
{
 53c:	cf 93       	push	r28
 53e:	df 93       	push	r29
 540:	ec 01       	movw	r28, r24
	seneste6Bits_ = 0;
 542:	1d 82       	std	Y+5, r1	; 0x05
 544:	1c 82       	std	Y+4, r1	; 0x04
	counter_ = 0;
 546:	1b 8a       	std	Y+19, r1	; 0x13
 548:	1a 8a       	std	Y+18, r1	; 0x12
	while(stopBits_ != seneste6Bits_){
 54a:	48 85       	ldd	r20, Y+8	; 0x08
 54c:	59 85       	ldd	r21, Y+9	; 0x09
 54e:	2c 81       	ldd	r18, Y+4	; 0x04
 550:	3d 81       	ldd	r19, Y+5	; 0x05
 552:	42 17       	cp	r20, r18
 554:	53 07       	cpc	r21, r19
 556:	b9 f0       	breq	.+46     	; 0x586 <_ZN8Reciever12readStopBitsEv+0x4a>
		if (zeroCross_ == 1)
 558:	88 81       	ld	r24, Y
 55a:	99 81       	ldd	r25, Y+1	; 0x01
 55c:	01 97       	sbiw	r24, 0x01	; 1
 55e:	c9 f7       	brne	.-14     	; 0x552 <_ZN8Reciever12readStopBitsEv+0x16>
		{
			if (counter_ <= 6){
 560:	8a 89       	ldd	r24, Y+18	; 0x12
 562:	9b 89       	ldd	r25, Y+19	; 0x13
 564:	07 97       	sbiw	r24, 0x07	; 7
 566:	94 f4       	brge	.+36     	; 0x58c <_ZN8Reciever12readStopBitsEv+0x50>
			readADC();
 568:	ce 01       	movw	r24, r28
 56a:	1c df       	rcall	.-456    	; 0x3a4 <_ZN8Reciever7readADCEv>
			
			seneste6Bits_ = seneste6Bits_ << 1;
			seneste6Bits_ |= nyesteBit_;
 56c:	8c 81       	ldd	r24, Y+4	; 0x04
 56e:	9d 81       	ldd	r25, Y+5	; 0x05
 570:	88 0f       	add	r24, r24
 572:	99 1f       	adc	r25, r25
 574:	2a 81       	ldd	r18, Y+2	; 0x02
 576:	3b 81       	ldd	r19, Y+3	; 0x03
 578:	82 2b       	or	r24, r18
 57a:	93 2b       	or	r25, r19
 57c:	9d 83       	std	Y+5, r25	; 0x05
 57e:	8c 83       	std	Y+4, r24	; 0x04
			
			zeroCross_ = 0;
 580:	19 82       	std	Y+1, r1	; 0x01
 582:	18 82       	st	Y, r1
 584:	e2 cf       	rjmp	.-60     	; 0x54a <_ZN8Reciever12readStopBitsEv+0xe>
				return 0;
			}
		}
	}
	
	return 1;
 586:	81 e0       	ldi	r24, 0x01	; 1
 588:	90 e0       	ldi	r25, 0x00	; 0
 58a:	02 c0       	rjmp	.+4      	; 0x590 <_ZN8Reciever12readStopBitsEv+0x54>
			seneste6Bits_ = seneste6Bits_ << 1;
			seneste6Bits_ |= nyesteBit_;
			
			zeroCross_ = 0;
			}else{
				return 0;
 58c:	80 e0       	ldi	r24, 0x00	; 0
 58e:	90 e0       	ldi	r25, 0x00	; 0
			}
		}
	}
	
	return 1;
}
 590:	df 91       	pop	r29
 592:	cf 91       	pop	r28
 594:	08 95       	ret

00000596 <_ZN8Reciever11turnOnLightEv>:
	uart_->SendString("\\");	
}

void Reciever::turnOnLight()
{
	PORTB = 0xFF;
 596:	8f ef       	ldi	r24, 0xFF	; 255
 598:	85 b9       	out	0x05, r24	; 5
 59a:	08 95       	ret

0000059c <_ZN8Reciever12turnOffLightEv>:
}

void Reciever::turnOffLight()
{
	PORTB = 0;	
 59c:	15 b8       	out	0x05, r1	; 5
 59e:	08 95       	ret

000005a0 <_ZN4UARTC1Ev>:
#include "UART.h"

// default constructor
UART::UART()
{
	UCSR0B = 0b10011000;			// Tænder for sender og modtager + enabler interupt ved modtagelse
 5a0:	88 e9       	ldi	r24, 0x98	; 152
 5a2:	80 93 c1 00 	sts	0x00C1, r24	; 0x8000c1 <__TEXT_REGION_LENGTH__+0x7c00c1>
	UBRR0 = 103;					// Værdien gør at baud raten er 9600
 5a6:	87 e6       	ldi	r24, 0x67	; 103
 5a8:	90 e0       	ldi	r25, 0x00	; 0
 5aa:	90 93 c5 00 	sts	0x00C5, r25	; 0x8000c5 <__TEXT_REGION_LENGTH__+0x7c00c5>
 5ae:	80 93 c4 00 	sts	0x00C4, r24	; 0x8000c4 <__TEXT_REGION_LENGTH__+0x7c00c4>
	UCSR0C = 0b00000110;			// bit 0 gør ingenting
 5b2:	86 e0       	ldi	r24, 0x06	; 6
 5b4:	80 93 c2 00 	sts	0x00C2, r24	; 0x8000c2 <__TEXT_REGION_LENGTH__+0x7c00c2>
 5b8:	08 95       	ret

000005ba <_ZN4UART8SendCharEc>:
} //UART

void UART::SendChar(char Tegn)
{
	// <---- Skriv din kode her
	while((0b00100000 & UCSR0A) == 0)
 5ba:	e0 ec       	ldi	r30, 0xC0	; 192
 5bc:	f0 e0       	ldi	r31, 0x00	; 0
 5be:	80 81       	ld	r24, Z
 5c0:	85 ff       	sbrs	r24, 5
 5c2:	fd cf       	rjmp	.-6      	; 0x5be <_ZN4UART8SendCharEc+0x4>
	{}
	UDR0 = Tegn;
 5c4:	60 93 c6 00 	sts	0x00C6, r22	; 0x8000c6 <__TEXT_REGION_LENGTH__+0x7c00c6>
 5c8:	08 95       	ret

000005ca <_ZN4UART10SendStringEPc>:
}

void UART::SendString(char* Streng)
{
 5ca:	0f 93       	push	r16
 5cc:	1f 93       	push	r17
 5ce:	cf 93       	push	r28
 5d0:	df 93       	push	r29
 5d2:	eb 01       	movw	r28, r22
	while (*Streng != 0)
 5d4:	68 81       	ld	r22, Y
 5d6:	66 23       	and	r22, r22
 5d8:	39 f0       	breq	.+14     	; 0x5e8 <_ZN4UART10SendStringEPc+0x1e>
 5da:	8c 01       	movw	r16, r24
 5dc:	21 96       	adiw	r28, 0x01	; 1
	{
		SendChar(*Streng);
 5de:	c8 01       	movw	r24, r16
 5e0:	ec df       	rcall	.-40     	; 0x5ba <_ZN4UART8SendCharEc>
	UDR0 = Tegn;
}

void UART::SendString(char* Streng)
{
	while (*Streng != 0)
 5e2:	69 91       	ld	r22, Y+
 5e4:	61 11       	cpse	r22, r1
 5e6:	fb cf       	rjmp	.-10     	; 0x5de <_ZN4UART10SendStringEPc+0x14>
	{
		SendChar(*Streng);
		Streng++;
	}
}
 5e8:	df 91       	pop	r29
 5ea:	cf 91       	pop	r28
 5ec:	1f 91       	pop	r17
 5ee:	0f 91       	pop	r16
 5f0:	08 95       	ret

000005f2 <_ZN4UART11SendIntegerEi>:

void UART::SendInteger(int Tal)
{
 5f2:	0f 93       	push	r16
 5f4:	1f 93       	push	r17
 5f6:	cf 93       	push	r28
 5f8:	df 93       	push	r29
 5fa:	cd b7       	in	r28, 0x3d	; 61
 5fc:	de b7       	in	r29, 0x3e	; 62
 5fe:	27 97       	sbiw	r28, 0x07	; 7
 600:	0f b6       	in	r0, 0x3f	; 63
 602:	f8 94       	cli
 604:	de bf       	out	0x3e, r29	; 62
 606:	0f be       	out	0x3f, r0	; 63
 608:	cd bf       	out	0x3d, r28	; 61
 60a:	8c 01       	movw	r16, r24
 60c:	cb 01       	movw	r24, r22
    } else if (__radix < 2 || __radix > 36) {
	*__s = 0;
	return __s;
    } else {
	extern char *__itoa_ncheck (int, char *, unsigned char);
	return __itoa_ncheck (__val, __s, __radix);
 60e:	4a e0       	ldi	r20, 0x0A	; 10
 610:	be 01       	movw	r22, r28
 612:	6f 5f       	subi	r22, 0xFF	; 255
 614:	7f 4f       	sbci	r23, 0xFF	; 255
 616:	18 d0       	rcall	.+48     	; 0x648 <__itoa_ncheck>
	char array[7];
	// Convert the integer to an ASCII string (array), radix = 10
	itoa(Tal, array, 10);
	// - then send the string
	SendString(array);
 618:	be 01       	movw	r22, r28
 61a:	6f 5f       	subi	r22, 0xFF	; 255
 61c:	7f 4f       	sbci	r23, 0xFF	; 255
 61e:	c8 01       	movw	r24, r16
 620:	d4 df       	rcall	.-88     	; 0x5ca <_ZN4UART10SendStringEPc>
 622:	27 96       	adiw	r28, 0x07	; 7
 624:	0f b6       	in	r0, 0x3f	; 63
 626:	f8 94       	cli
 628:	de bf       	out	0x3e, r29	; 62
 62a:	0f be       	out	0x3f, r0	; 63
 62c:	cd bf       	out	0x3d, r28	; 61
 62e:	df 91       	pop	r29
 630:	cf 91       	pop	r28
 632:	1f 91       	pop	r17
 634:	0f 91       	pop	r16
 636:	08 95       	ret

00000638 <__tablejump2__>:
 638:	ee 0f       	add	r30, r30
 63a:	ff 1f       	adc	r31, r31
 63c:	88 1f       	adc	r24, r24
 63e:	8b bf       	out	0x3b, r24	; 59
 640:	07 90       	elpm	r0, Z+
 642:	f6 91       	elpm	r31, Z
 644:	e0 2d       	mov	r30, r0
 646:	19 94       	eijmp

00000648 <__itoa_ncheck>:
 648:	bb 27       	eor	r27, r27
 64a:	4a 30       	cpi	r20, 0x0A	; 10
 64c:	31 f4       	brne	.+12     	; 0x65a <__itoa_ncheck+0x12>
 64e:	99 23       	and	r25, r25
 650:	22 f4       	brpl	.+8      	; 0x65a <__itoa_ncheck+0x12>
 652:	bd e2       	ldi	r27, 0x2D	; 45
 654:	90 95       	com	r25
 656:	81 95       	neg	r24
 658:	9f 4f       	sbci	r25, 0xFF	; 255
 65a:	01 c0       	rjmp	.+2      	; 0x65e <__utoa_common>

0000065c <__utoa_ncheck>:
 65c:	bb 27       	eor	r27, r27

0000065e <__utoa_common>:
 65e:	fb 01       	movw	r30, r22
 660:	55 27       	eor	r21, r21
 662:	aa 27       	eor	r26, r26
 664:	88 0f       	add	r24, r24
 666:	99 1f       	adc	r25, r25
 668:	aa 1f       	adc	r26, r26
 66a:	a4 17       	cp	r26, r20
 66c:	10 f0       	brcs	.+4      	; 0x672 <__utoa_common+0x14>
 66e:	a4 1b       	sub	r26, r20
 670:	83 95       	inc	r24
 672:	50 51       	subi	r21, 0x10	; 16
 674:	b9 f7       	brne	.-18     	; 0x664 <__utoa_common+0x6>
 676:	a0 5d       	subi	r26, 0xD0	; 208
 678:	aa 33       	cpi	r26, 0x3A	; 58
 67a:	08 f0       	brcs	.+2      	; 0x67e <__utoa_common+0x20>
 67c:	a9 5d       	subi	r26, 0xD9	; 217
 67e:	a1 93       	st	Z+, r26
 680:	00 97       	sbiw	r24, 0x00	; 0
 682:	79 f7       	brne	.-34     	; 0x662 <__utoa_common+0x4>
 684:	b1 11       	cpse	r27, r1
 686:	b1 93       	st	Z+, r27
 688:	11 92       	st	Z+, r1
 68a:	cb 01       	movw	r24, r22
 68c:	00 c0       	rjmp	.+0      	; 0x68e <strrev>

0000068e <strrev>:
 68e:	dc 01       	movw	r26, r24
 690:	fc 01       	movw	r30, r24
 692:	67 2f       	mov	r22, r23
 694:	71 91       	ld	r23, Z+
 696:	77 23       	and	r23, r23
 698:	e1 f7       	brne	.-8      	; 0x692 <strrev+0x4>
 69a:	32 97       	sbiw	r30, 0x02	; 2
 69c:	04 c0       	rjmp	.+8      	; 0x6a6 <strrev+0x18>
 69e:	7c 91       	ld	r23, X
 6a0:	6d 93       	st	X+, r22
 6a2:	70 83       	st	Z, r23
 6a4:	62 91       	ld	r22, -Z
 6a6:	ae 17       	cp	r26, r30
 6a8:	bf 07       	cpc	r27, r31
 6aa:	c8 f3       	brcs	.-14     	; 0x69e <strrev+0x10>
 6ac:	08 95       	ret

000006ae <__do_global_dtors>:
 6ae:	10 e0       	ldi	r17, 0x00	; 0
 6b0:	c3 e7       	ldi	r28, 0x73	; 115
 6b2:	d0 e0       	ldi	r29, 0x00	; 0
 6b4:	00 e0       	ldi	r16, 0x00	; 0
 6b6:	05 c0       	rjmp	.+10     	; 0x6c2 <__do_global_dtors+0x14>
 6b8:	80 2f       	mov	r24, r16
 6ba:	fe 01       	movw	r30, r28
 6bc:	bd df       	rcall	.-134    	; 0x638 <__tablejump2__>
 6be:	21 96       	adiw	r28, 0x01	; 1
 6c0:	01 1d       	adc	r16, r1
 6c2:	c4 37       	cpi	r28, 0x74	; 116
 6c4:	d1 07       	cpc	r29, r17
 6c6:	80 e0       	ldi	r24, 0x00	; 0
 6c8:	08 07       	cpc	r16, r24
 6ca:	b1 f7       	brne	.-20     	; 0x6b8 <__do_global_dtors+0xa>
 6cc:	f8 94       	cli

000006ce <__stop_program>:
 6ce:	ff cf       	rjmp	.-2      	; 0x6ce <__stop_program>
